
playground.out:     file format elf64-x86-64


Disassembly of section .init:

0000000000001000 <_init>:
    1000:	f3 0f 1e fa          	endbr64
    1004:	48 83 ec 08          	sub    rsp,0x8
    1008:	48 8b 05 d9 3f 00 00 	mov    rax,QWORD PTR [rip+0x3fd9]        # 4fe8 <__gmon_start__@Base>
    100f:	48 85 c0             	test   rax,rax
    1012:	74 02                	je     1016 <_init+0x16>
    1014:	ff d0                	call   rax
    1016:	48 83 c4 08          	add    rsp,0x8
    101a:	c3                   	ret

Disassembly of section .plt:

0000000000001020 <.plt>:
    1020:	ff 35 12 3f 00 00    	push   QWORD PTR [rip+0x3f12]        # 4f38 <_GLOBAL_OFFSET_TABLE_+0x8>
    1026:	f2 ff 25 13 3f 00 00 	bnd jmp QWORD PTR [rip+0x3f13]        # 4f40 <_GLOBAL_OFFSET_TABLE_+0x10>
    102d:	0f 1f 00             	nop    DWORD PTR [rax]
    1030:	f3 0f 1e fa          	endbr64
    1034:	68 00 00 00 00       	push   0x0
    1039:	f2 e9 e1 ff ff ff    	bnd jmp 1020 <_init+0x20>
    103f:	90                   	nop
    1040:	f3 0f 1e fa          	endbr64
    1044:	68 01 00 00 00       	push   0x1
    1049:	f2 e9 d1 ff ff ff    	bnd jmp 1020 <_init+0x20>
    104f:	90                   	nop
    1050:	f3 0f 1e fa          	endbr64
    1054:	68 02 00 00 00       	push   0x2
    1059:	f2 e9 c1 ff ff ff    	bnd jmp 1020 <_init+0x20>
    105f:	90                   	nop
    1060:	f3 0f 1e fa          	endbr64
    1064:	68 03 00 00 00       	push   0x3
    1069:	f2 e9 b1 ff ff ff    	bnd jmp 1020 <_init+0x20>
    106f:	90                   	nop
    1070:	f3 0f 1e fa          	endbr64
    1074:	68 04 00 00 00       	push   0x4
    1079:	f2 e9 a1 ff ff ff    	bnd jmp 1020 <_init+0x20>
    107f:	90                   	nop
    1080:	f3 0f 1e fa          	endbr64
    1084:	68 05 00 00 00       	push   0x5
    1089:	f2 e9 91 ff ff ff    	bnd jmp 1020 <_init+0x20>
    108f:	90                   	nop
    1090:	f3 0f 1e fa          	endbr64
    1094:	68 06 00 00 00       	push   0x6
    1099:	f2 e9 81 ff ff ff    	bnd jmp 1020 <_init+0x20>
    109f:	90                   	nop
    10a0:	f3 0f 1e fa          	endbr64
    10a4:	68 07 00 00 00       	push   0x7
    10a9:	f2 e9 71 ff ff ff    	bnd jmp 1020 <_init+0x20>
    10af:	90                   	nop
    10b0:	f3 0f 1e fa          	endbr64
    10b4:	68 08 00 00 00       	push   0x8
    10b9:	f2 e9 61 ff ff ff    	bnd jmp 1020 <_init+0x20>
    10bf:	90                   	nop
    10c0:	f3 0f 1e fa          	endbr64
    10c4:	68 09 00 00 00       	push   0x9
    10c9:	f2 e9 51 ff ff ff    	bnd jmp 1020 <_init+0x20>
    10cf:	90                   	nop
    10d0:	f3 0f 1e fa          	endbr64
    10d4:	68 0a 00 00 00       	push   0xa
    10d9:	f2 e9 41 ff ff ff    	bnd jmp 1020 <_init+0x20>
    10df:	90                   	nop
    10e0:	f3 0f 1e fa          	endbr64
    10e4:	68 0b 00 00 00       	push   0xb
    10e9:	f2 e9 31 ff ff ff    	bnd jmp 1020 <_init+0x20>
    10ef:	90                   	nop
    10f0:	f3 0f 1e fa          	endbr64
    10f4:	68 0c 00 00 00       	push   0xc
    10f9:	f2 e9 21 ff ff ff    	bnd jmp 1020 <_init+0x20>
    10ff:	90                   	nop
    1100:	f3 0f 1e fa          	endbr64
    1104:	68 0d 00 00 00       	push   0xd
    1109:	f2 e9 11 ff ff ff    	bnd jmp 1020 <_init+0x20>
    110f:	90                   	nop
    1110:	f3 0f 1e fa          	endbr64
    1114:	68 0e 00 00 00       	push   0xe
    1119:	f2 e9 01 ff ff ff    	bnd jmp 1020 <_init+0x20>
    111f:	90                   	nop
    1120:	f3 0f 1e fa          	endbr64
    1124:	68 0f 00 00 00       	push   0xf
    1129:	f2 e9 f1 fe ff ff    	bnd jmp 1020 <_init+0x20>
    112f:	90                   	nop
    1130:	f3 0f 1e fa          	endbr64
    1134:	68 10 00 00 00       	push   0x10
    1139:	f2 e9 e1 fe ff ff    	bnd jmp 1020 <_init+0x20>
    113f:	90                   	nop

Disassembly of section .plt.got:

0000000000001140 <__cxa_finalize@plt>:
    1140:	f3 0f 1e fa          	endbr64
    1144:	f2 ff 25 85 3e 00 00 	bnd jmp QWORD PTR [rip+0x3e85]        # 4fd0 <__cxa_finalize@GLIBC_2.2.5>
    114b:	0f 1f 44 00 00       	nop    DWORD PTR [rax+rax*1+0x0]

Disassembly of section .plt.sec:

0000000000001150 <_ZNSo3putEc@plt>:
    1150:	f3 0f 1e fa          	endbr64
    1154:	f2 ff 25 ed 3d 00 00 	bnd jmp QWORD PTR [rip+0x3ded]        # 4f48 <_ZNSo3putEc@GLIBCXX_3.4>
    115b:	0f 1f 44 00 00       	nop    DWORD PTR [rax+rax*1+0x0]

0000000000001160 <_ZNSt13basic_filebufIcSt11char_traitsIcEE5closeEv@plt>:
    1160:	f3 0f 1e fa          	endbr64
    1164:	f2 ff 25 e5 3d 00 00 	bnd jmp QWORD PTR [rip+0x3de5]        # 4f50 <_ZNSt13basic_filebufIcSt11char_traitsIcEE5closeEv@GLIBCXX_3.4>
    116b:	0f 1f 44 00 00       	nop    DWORD PTR [rax+rax*1+0x0]

0000000000001170 <strlen@plt>:
    1170:	f3 0f 1e fa          	endbr64
    1174:	f2 ff 25 dd 3d 00 00 	bnd jmp QWORD PTR [rip+0x3ddd]        # 4f58 <strlen@GLIBC_2.2.5>
    117b:	0f 1f 44 00 00       	nop    DWORD PTR [rax+rax*1+0x0]

0000000000001180 <_ZNSo5flushEv@plt>:
    1180:	f3 0f 1e fa          	endbr64
    1184:	f2 ff 25 d5 3d 00 00 	bnd jmp QWORD PTR [rip+0x3dd5]        # 4f60 <_ZNSo5flushEv@GLIBCXX_3.4>
    118b:	0f 1f 44 00 00       	nop    DWORD PTR [rax+rax*1+0x0]

0000000000001190 <memcpy@plt>:
    1190:	f3 0f 1e fa          	endbr64
    1194:	f2 ff 25 cd 3d 00 00 	bnd jmp QWORD PTR [rip+0x3dcd]        # 4f68 <memcpy@GLIBC_2.14>
    119b:	0f 1f 44 00 00       	nop    DWORD PTR [rax+rax*1+0x0]

00000000000011a0 <__cxa_atexit@plt>:
    11a0:	f3 0f 1e fa          	endbr64
    11a4:	f2 ff 25 c5 3d 00 00 	bnd jmp QWORD PTR [rip+0x3dc5]        # 4f70 <__cxa_atexit@GLIBC_2.2.5>
    11ab:	0f 1f 44 00 00       	nop    DWORD PTR [rax+rax*1+0x0]

00000000000011b0 <_ZNSt13basic_filebufIcSt11char_traitsIcEE4openEPKcSt13_Ios_Openmode@plt>:
    11b0:	f3 0f 1e fa          	endbr64
    11b4:	f2 ff 25 bd 3d 00 00 	bnd jmp QWORD PTR [rip+0x3dbd]        # 4f78 <_ZNSt13basic_filebufIcSt11char_traitsIcEE4openEPKcSt13_Ios_Openmode@GLIBCXX_3.4>
    11bb:	0f 1f 44 00 00       	nop    DWORD PTR [rax+rax*1+0x0]

00000000000011c0 <_ZStlsISt11char_traitsIcEERSt13basic_ostreamIcT_ES5_PKc@plt>:
    11c0:	f3 0f 1e fa          	endbr64
    11c4:	f2 ff 25 b5 3d 00 00 	bnd jmp QWORD PTR [rip+0x3db5]        # 4f80 <_ZStlsISt11char_traitsIcEERSt13basic_ostreamIcT_ES5_PKc@GLIBCXX_3.4>
    11cb:	0f 1f 44 00 00       	nop    DWORD PTR [rax+rax*1+0x0]

00000000000011d0 <__stack_chk_fail@plt>:
    11d0:	f3 0f 1e fa          	endbr64
    11d4:	f2 ff 25 ad 3d 00 00 	bnd jmp QWORD PTR [rip+0x3dad]        # 4f88 <__stack_chk_fail@GLIBC_2.4>
    11db:	0f 1f 44 00 00       	nop    DWORD PTR [rax+rax*1+0x0]

00000000000011e0 <_ZSt16__ostream_insertIcSt11char_traitsIcEERSt13basic_ostreamIT_T0_ES6_PKS3_l@plt>:
    11e0:	f3 0f 1e fa          	endbr64
    11e4:	f2 ff 25 a5 3d 00 00 	bnd jmp QWORD PTR [rip+0x3da5]        # 4f90 <_ZSt16__ostream_insertIcSt11char_traitsIcEERSt13basic_ostreamIT_T0_ES6_PKS3_l@GLIBCXX_3.4.9>
    11eb:	0f 1f 44 00 00       	nop    DWORD PTR [rax+rax*1+0x0]

00000000000011f0 <_ZNKSt5ctypeIcE13_M_widen_initEv@plt>:
    11f0:	f3 0f 1e fa          	endbr64
    11f4:	f2 ff 25 9d 3d 00 00 	bnd jmp QWORD PTR [rip+0x3d9d]        # 4f98 <_ZNKSt5ctypeIcE13_M_widen_initEv@GLIBCXX_3.4.11>
    11fb:	0f 1f 44 00 00       	nop    DWORD PTR [rax+rax*1+0x0]

0000000000001200 <free@plt>:
    1200:	f3 0f 1e fa          	endbr64
    1204:	f2 ff 25 95 3d 00 00 	bnd jmp QWORD PTR [rip+0x3d95]        # 4fa0 <free@GLIBC_2.2.5>
    120b:	0f 1f 44 00 00       	nop    DWORD PTR [rax+rax*1+0x0]

0000000000001210 <exit@plt>:
    1210:	f3 0f 1e fa          	endbr64
    1214:	f2 ff 25 8d 3d 00 00 	bnd jmp QWORD PTR [rip+0x3d8d]        # 4fa8 <exit@GLIBC_2.2.5>
    121b:	0f 1f 44 00 00       	nop    DWORD PTR [rax+rax*1+0x0]

0000000000001220 <_ZSt16__throw_bad_castv@plt>:
    1220:	f3 0f 1e fa          	endbr64
    1224:	f2 ff 25 85 3d 00 00 	bnd jmp QWORD PTR [rip+0x3d85]        # 4fb0 <_ZSt16__throw_bad_castv@GLIBCXX_3.4>
    122b:	0f 1f 44 00 00       	nop    DWORD PTR [rax+rax*1+0x0]

0000000000001230 <malloc@plt>:
    1230:	f3 0f 1e fa          	endbr64
    1234:	f2 ff 25 7d 3d 00 00 	bnd jmp QWORD PTR [rip+0x3d7d]        # 4fb8 <malloc@GLIBC_2.2.5>
    123b:	0f 1f 44 00 00       	nop    DWORD PTR [rax+rax*1+0x0]

0000000000001240 <_ZNSt8ios_base4InitC1Ev@plt>:
    1240:	f3 0f 1e fa          	endbr64
    1244:	f2 ff 25 75 3d 00 00 	bnd jmp QWORD PTR [rip+0x3d75]        # 4fc0 <_ZNSt8ios_base4InitC1Ev@GLIBCXX_3.4>
    124b:	0f 1f 44 00 00       	nop    DWORD PTR [rax+rax*1+0x0]

0000000000001250 <_ZNSt9basic_iosIcSt11char_traitsIcEE5clearESt12_Ios_Iostate@plt>:
    1250:	f3 0f 1e fa          	endbr64
    1254:	f2 ff 25 6d 3d 00 00 	bnd jmp QWORD PTR [rip+0x3d6d]        # 4fc8 <_ZNSt9basic_iosIcSt11char_traitsIcEE5clearESt12_Ios_Iostate@GLIBCXX_3.4>
    125b:	0f 1f 44 00 00       	nop    DWORD PTR [rax+rax*1+0x0]

Disassembly of section .text:

0000000000001260 <main>:
    1260:	f3 0f 1e fa          	endbr64
    1264:	31 c0                	xor    eax,eax
    1266:	c3                   	ret
    1267:	66 0f 1f 84 00 00 00 	nop    WORD PTR [rax+rax*1+0x0]
    126e:	00 00 

0000000000001270 <_GLOBAL__sub_I__Z5panicPKc>:
    1270:	f3 0f 1e fa          	endbr64
    1274:	55                   	push   rbp
    1275:	48 8d 2d f0 3e 00 00 	lea    rbp,[rip+0x3ef0]        # 516c <_ZStL8__ioinit>
    127c:	48 89 ef             	mov    rdi,rbp
    127f:	e8 bc ff ff ff       	call   1240 <_ZNSt8ios_base4InitC1Ev@plt>
    1284:	48 8b 3d 6d 3d 00 00 	mov    rdi,QWORD PTR [rip+0x3d6d]        # 4ff8 <_ZNSt8ios_base4InitD1Ev@GLIBCXX_3.4>
    128b:	48 8d 15 76 3d 00 00 	lea    rdx,[rip+0x3d76]        # 5008 <__dso_handle>
    1292:	48 89 ee             	mov    rsi,rbp
    1295:	e8 06 ff ff ff       	call   11a0 <__cxa_atexit@plt>
    129a:	8b 05 d0 3e 00 00    	mov    eax,DWORD PTR [rip+0x3ed0]        # 5170 <_ZZ13declare_errorvE5error>
    12a0:	5d                   	pop    rbp
    12a1:	8d 50 01             	lea    edx,[rax+0x1]
    12a4:	89 05 be 3e 00 00    	mov    DWORD PTR [rip+0x3ebe],eax        # 5168 <_ZN9CoreError10OutOfRangeE>
    12aa:	89 15 b4 3e 00 00    	mov    DWORD PTR [rip+0x3eb4],edx        # 5164 <_ZN9CoreError10EmptyAccesE>
    12b0:	8d 50 02             	lea    edx,[rax+0x2]
    12b3:	89 15 a7 3e 00 00    	mov    DWORD PTR [rip+0x3ea7],edx        # 5160 <_ZN9CoreError16InvalidOperationE>
    12b9:	8d 50 03             	lea    edx,[rax+0x3]
    12bc:	89 15 9a 3e 00 00    	mov    DWORD PTR [rip+0x3e9a],edx        # 515c <_ZN9CoreError7CorrectE>
    12c2:	8d 50 04             	lea    edx,[rax+0x4]
    12c5:	89 15 8d 3e 00 00    	mov    DWORD PTR [rip+0x3e8d],edx        # 5158 <_ZN11MemoryError14NotEnoughSpaceE>
    12cb:	8d 50 06             	lea    edx,[rax+0x6]
    12ce:	83 c0 05             	add    eax,0x5
    12d1:	89 15 99 3e 00 00    	mov    DWORD PTR [rip+0x3e99],edx        # 5170 <_ZZ13declare_errorvE5error>
    12d7:	89 05 77 3e 00 00    	mov    DWORD PTR [rip+0x3e77],eax        # 5154 <_ZN11MemoryError10AllocationE>
    12dd:	c3                   	ret
    12de:	66 90                	xchg   ax,ax

00000000000012e0 <_start>:
    12e0:	f3 0f 1e fa          	endbr64
    12e4:	31 ed                	xor    ebp,ebp
    12e6:	49 89 d1             	mov    r9,rdx
    12e9:	5e                   	pop    rsi
    12ea:	48 89 e2             	mov    rdx,rsp
    12ed:	48 83 e4 f0          	and    rsp,0xfffffffffffffff0
    12f1:	50                   	push   rax
    12f2:	54                   	push   rsp
    12f3:	45 31 c0             	xor    r8d,r8d
    12f6:	31 c9                	xor    ecx,ecx
    12f8:	48 8d 3d 61 ff ff ff 	lea    rdi,[rip+0xffffffffffffff61]        # 1260 <main>
    12ff:	ff 15 d3 3c 00 00    	call   QWORD PTR [rip+0x3cd3]        # 4fd8 <__libc_start_main@GLIBC_2.34>
    1305:	f4                   	hlt
    1306:	66 2e 0f 1f 84 00 00 	cs nop WORD PTR [rax+rax*1+0x0]
    130d:	00 00 00 

0000000000001310 <deregister_tm_clones>:
    1310:	48 8d 3d f9 3c 00 00 	lea    rdi,[rip+0x3cf9]        # 5010 <__TMC_END__>
    1317:	48 8d 05 f2 3c 00 00 	lea    rax,[rip+0x3cf2]        # 5010 <__TMC_END__>
    131e:	48 39 f8             	cmp    rax,rdi
    1321:	74 15                	je     1338 <deregister_tm_clones+0x28>
    1323:	48 8b 05 b6 3c 00 00 	mov    rax,QWORD PTR [rip+0x3cb6]        # 4fe0 <_ITM_deregisterTMCloneTable@Base>
    132a:	48 85 c0             	test   rax,rax
    132d:	74 09                	je     1338 <deregister_tm_clones+0x28>
    132f:	ff e0                	jmp    rax
    1331:	0f 1f 80 00 00 00 00 	nop    DWORD PTR [rax+0x0]
    1338:	c3                   	ret
    1339:	0f 1f 80 00 00 00 00 	nop    DWORD PTR [rax+0x0]

0000000000001340 <register_tm_clones>:
    1340:	48 8d 3d c9 3c 00 00 	lea    rdi,[rip+0x3cc9]        # 5010 <__TMC_END__>
    1347:	48 8d 35 c2 3c 00 00 	lea    rsi,[rip+0x3cc2]        # 5010 <__TMC_END__>
    134e:	48 29 fe             	sub    rsi,rdi
    1351:	48 89 f0             	mov    rax,rsi
    1354:	48 c1 ee 3f          	shr    rsi,0x3f
    1358:	48 c1 f8 03          	sar    rax,0x3
    135c:	48 01 c6             	add    rsi,rax
    135f:	48 d1 fe             	sar    rsi,1
    1362:	74 14                	je     1378 <register_tm_clones+0x38>
    1364:	48 8b 05 85 3c 00 00 	mov    rax,QWORD PTR [rip+0x3c85]        # 4ff0 <_ITM_registerTMCloneTable@Base>
    136b:	48 85 c0             	test   rax,rax
    136e:	74 08                	je     1378 <register_tm_clones+0x38>
    1370:	ff e0                	jmp    rax
    1372:	66 0f 1f 44 00 00    	nop    WORD PTR [rax+rax*1+0x0]
    1378:	c3                   	ret
    1379:	0f 1f 80 00 00 00 00 	nop    DWORD PTR [rax+0x0]

0000000000001380 <__do_global_dtors_aux>:
    1380:	f3 0f 1e fa          	endbr64
    1384:	80 3d c5 3d 00 00 00 	cmp    BYTE PTR [rip+0x3dc5],0x0        # 5150 <completed.0>
    138b:	75 2b                	jne    13b8 <__do_global_dtors_aux+0x38>
    138d:	55                   	push   rbp
    138e:	48 83 3d 3a 3c 00 00 	cmp    QWORD PTR [rip+0x3c3a],0x0        # 4fd0 <__cxa_finalize@GLIBC_2.2.5>
    1395:	00 
    1396:	48 89 e5             	mov    rbp,rsp
    1399:	74 0c                	je     13a7 <__do_global_dtors_aux+0x27>
    139b:	48 8b 3d 66 3c 00 00 	mov    rdi,QWORD PTR [rip+0x3c66]        # 5008 <__dso_handle>
    13a2:	e8 99 fd ff ff       	call   1140 <__cxa_finalize@plt>
    13a7:	e8 64 ff ff ff       	call   1310 <deregister_tm_clones>
    13ac:	c6 05 9d 3d 00 00 01 	mov    BYTE PTR [rip+0x3d9d],0x1        # 5150 <completed.0>
    13b3:	5d                   	pop    rbp
    13b4:	c3                   	ret
    13b5:	0f 1f 00             	nop    DWORD PTR [rax]
    13b8:	c3                   	ret
    13b9:	0f 1f 80 00 00 00 00 	nop    DWORD PTR [rax+0x0]

00000000000013c0 <frame_dummy>:
    13c0:	f3 0f 1e fa          	endbr64
    13c4:	e9 77 ff ff ff       	jmp    1340 <register_tm_clones>
    13c9:	0f 1f 80 00 00 00 00 	nop    DWORD PTR [rax+0x0]

00000000000013d0 <_ZZ12to_interfaceR14BasicAllocatorENUlPvRK3RawE0_4_FUNES1_S4_>:
    13d0:	f3 0f 1e fa          	endbr64
    13d4:	48 8b 3e             	mov    rdi,QWORD PTR [rsi]
    13d7:	e9 24 fe ff ff       	jmp    1200 <free@plt>
    13dc:	0f 1f 40 00          	nop    DWORD PTR [rax+0x0]

00000000000013e0 <_ZSt4endlIcSt11char_traitsIcEERSt13basic_ostreamIT_T0_ES6_.isra.0>:
    13e0:	41 54                	push   r12
    13e2:	55                   	push   rbp
    13e3:	48 83 ec 08          	sub    rsp,0x8
    13e7:	48 8b 07             	mov    rax,QWORD PTR [rdi]
    13ea:	48 8b 40 e8          	mov    rax,QWORD PTR [rax-0x18]
    13ee:	4c 8b a4 07 f0 00 00 	mov    r12,QWORD PTR [rdi+rax*1+0xf0]
    13f5:	00 
    13f6:	4d 85 e4             	test   r12,r12
    13f9:	74 58                	je     1453 <_ZSt4endlIcSt11char_traitsIcEERSt13basic_ostreamIT_T0_ES6_.isra.0+0x73>
    13fb:	41 80 7c 24 38 00    	cmp    BYTE PTR [r12+0x38],0x0
    1401:	48 89 fd             	mov    rbp,rdi
    1404:	74 1d                	je     1423 <_ZSt4endlIcSt11char_traitsIcEERSt13basic_ostreamIT_T0_ES6_.isra.0+0x43>
    1406:	41 0f be 74 24 43    	movsx  esi,BYTE PTR [r12+0x43]
    140c:	48 89 ef             	mov    rdi,rbp
    140f:	e8 3c fd ff ff       	call   1150 <_ZNSo3putEc@plt>
    1414:	48 83 c4 08          	add    rsp,0x8
    1418:	5d                   	pop    rbp
    1419:	48 89 c7             	mov    rdi,rax
    141c:	41 5c                	pop    r12
    141e:	e9 5d fd ff ff       	jmp    1180 <_ZNSo5flushEv@plt>
    1423:	4c 89 e7             	mov    rdi,r12
    1426:	e8 c5 fd ff ff       	call   11f0 <_ZNKSt5ctypeIcE13_M_widen_initEv@plt>
    142b:	49 8b 04 24          	mov    rax,QWORD PTR [r12]
    142f:	be 0a 00 00 00       	mov    esi,0xa
    1434:	48 8d 15 15 17 00 00 	lea    rdx,[rip+0x1715]        # 2b50 <_ZNKSt5ctypeIcE8do_widenEc>
    143b:	48 8b 40 30          	mov    rax,QWORD PTR [rax+0x30]
    143f:	48 39 d0             	cmp    rax,rdx
    1442:	74 c8                	je     140c <_ZSt4endlIcSt11char_traitsIcEERSt13basic_ostreamIT_T0_ES6_.isra.0+0x2c>
    1444:	be 0a 00 00 00       	mov    esi,0xa
    1449:	4c 89 e7             	mov    rdi,r12
    144c:	ff d0                	call   rax
    144e:	0f be f0             	movsx  esi,al
    1451:	eb b9                	jmp    140c <_ZSt4endlIcSt11char_traitsIcEERSt13basic_ostreamIT_T0_ES6_.isra.0+0x2c>
    1453:	e8 c8 fd ff ff       	call   1220 <_ZSt16__throw_bad_castv@plt>
    1458:	0f 1f 84 00 00 00 00 	nop    DWORD PTR [rax+rax*1+0x0]
    145f:	00 

0000000000001460 <_ZZ12to_interfaceR10FileLoggerENUlPvE0_4_FUNES1_>:
    1460:	f3 0f 1e fa          	endbr64
    1464:	53                   	push   rbx
    1465:	48 89 fb             	mov    rbx,rdi
    1468:	48 83 c7 08          	add    rdi,0x8
    146c:	e8 ef fc ff ff       	call   1160 <_ZNSt13basic_filebufIcSt11char_traitsIcEE5closeEv@plt>
    1471:	48 85 c0             	test   rax,rax
    1474:	74 0a                	je     1480 <_ZZ12to_interfaceR10FileLoggerENUlPvE0_4_FUNES1_+0x20>
    1476:	5b                   	pop    rbx
    1477:	c3                   	ret
    1478:	0f 1f 84 00 00 00 00 	nop    DWORD PTR [rax+rax*1+0x0]
    147f:	00 
    1480:	48 8b 03             	mov    rax,QWORD PTR [rbx]
    1483:	48 03 58 e8          	add    rbx,QWORD PTR [rax-0x18]
    1487:	8b 73 20             	mov    esi,DWORD PTR [rbx+0x20]
    148a:	48 89 df             	mov    rdi,rbx
    148d:	5b                   	pop    rbx
    148e:	83 ce 04             	or     esi,0x4
    1491:	e9 ba fd ff ff       	jmp    1250 <_ZNSt9basic_iosIcSt11char_traitsIcEE5clearESt12_Ios_Iostate@plt>
    1496:	66 2e 0f 1f 84 00 00 	cs nop WORD PTR [rax+rax*1+0x0]
    149d:	00 00 00 

00000000000014a0 <_ZZ12to_interfaceR14BasicAllocatorENUlPvmE_4_FUNES1_m>:
    14a0:	f3 0f 1e fa          	endbr64
    14a4:	41 54                	push   r12
    14a6:	49 89 fc             	mov    r12,rdi
    14a9:	48 89 d7             	mov    rdi,rdx
    14ac:	53                   	push   rbx
    14ad:	48 89 d3             	mov    rbx,rdx
    14b0:	48 83 ec 08          	sub    rsp,0x8
    14b4:	e8 77 fd ff ff       	call   1230 <malloc@plt>
    14b9:	48 85 c0             	test   rax,rax
    14bc:	74 1f                	je     14dd <_ZZ12to_interfaceR14BasicAllocatorENUlPvmE_4_FUNES1_m+0x3d>
    14be:	8b 15 98 3c 00 00    	mov    edx,DWORD PTR [rip+0x3c98]        # 515c <_ZN9CoreError7CorrectE>
    14c4:	49 89 44 24 08       	mov    QWORD PTR [r12+0x8],rax
    14c9:	49 89 5c 24 10       	mov    QWORD PTR [r12+0x10],rbx
    14ce:	41 89 14 24          	mov    DWORD PTR [r12],edx
    14d2:	48 83 c4 08          	add    rsp,0x8
    14d6:	4c 89 e0             	mov    rax,r12
    14d9:	5b                   	pop    rbx
    14da:	41 5c                	pop    r12
    14dc:	c3                   	ret
    14dd:	b9 06 00 00 00       	mov    ecx,0x6
    14e2:	4c 89 e7             	mov    rdi,r12
    14e5:	f3 ab                	rep stos DWORD PTR es:[rdi],eax
    14e7:	8b 05 67 3c 00 00    	mov    eax,DWORD PTR [rip+0x3c67]        # 5154 <_ZN11MemoryError10AllocationE>
    14ed:	41 89 04 24          	mov    DWORD PTR [r12],eax
    14f1:	eb df                	jmp    14d2 <_ZZ12to_interfaceR14BasicAllocatorENUlPvmE_4_FUNES1_m+0x32>
    14f3:	66 66 2e 0f 1f 84 00 	data16 cs nop WORD PTR [rax+rax*1+0x0]
    14fa:	00 00 00 00 
    14fe:	66 90                	xchg   ax,ax

0000000000001500 <_ZZ12to_interfaceR10FileLoggerENUlPvN7ILogger8SeverityEPKcE_4_FUNES1_S3_S5_>:
    1500:	f3 0f 1e fa          	endbr64
    1504:	41 54                	push   r12
    1506:	49 89 d4             	mov    r12,rdx
    1509:	55                   	push   rbp
    150a:	48 89 fd             	mov    rbp,rdi
    150d:	48 83 ec 08          	sub    rsp,0x8
    1511:	40 80 fe 01          	cmp    sil,0x1
    1515:	0f 84 05 01 00 00    	je     1620 <_ZZ12to_interfaceR10FileLoggerENUlPvN7ILogger8SeverityEPKcE_4_FUNES1_S3_S5_+0x120>
    151b:	40 80 fe 02          	cmp    sil,0x2
    151f:	0f 84 db 00 00 00    	je     1600 <_ZZ12to_interfaceR10FileLoggerENUlPvN7ILogger8SeverityEPKcE_4_FUNES1_S3_S5_+0x100>
    1525:	40 84 f6             	test   sil,sil
    1528:	0f 84 b2 00 00 00    	je     15e0 <_ZZ12to_interfaceR10FileLoggerENUlPvN7ILogger8SeverityEPKcE_4_FUNES1_S3_S5_+0xe0>
    152e:	4d 85 e4             	test   r12,r12
    1531:	0f 84 89 00 00 00    	je     15c0 <_ZZ12to_interfaceR10FileLoggerENUlPvN7ILogger8SeverityEPKcE_4_FUNES1_S3_S5_+0xc0>
    1537:	4c 89 e7             	mov    rdi,r12
    153a:	e8 31 fc ff ff       	call   1170 <strlen@plt>
    153f:	4c 89 e6             	mov    rsi,r12
    1542:	48 89 ef             	mov    rdi,rbp
    1545:	48 89 c2             	mov    rdx,rax
    1548:	e8 93 fc ff ff       	call   11e0 <_ZSt16__ostream_insertIcSt11char_traitsIcEERSt13basic_ostreamIT_T0_ES6_PKS3_l@plt>
    154d:	48 8b 45 00          	mov    rax,QWORD PTR [rbp+0x0]
    1551:	48 8b 40 e8          	mov    rax,QWORD PTR [rax-0x18]
    1555:	4c 8b a4 05 f0 00 00 	mov    r12,QWORD PTR [rbp+rax*1+0xf0]
    155c:	00 
    155d:	4d 85 e4             	test   r12,r12
    1560:	0f 84 d0 00 00 00    	je     1636 <_ZZ12to_interfaceR10FileLoggerENUlPvN7ILogger8SeverityEPKcE_4_FUNES1_S3_S5_+0x136>
    1566:	41 80 7c 24 38 00    	cmp    BYTE PTR [r12+0x38],0x0
    156c:	74 22                	je     1590 <_ZZ12to_interfaceR10FileLoggerENUlPvN7ILogger8SeverityEPKcE_4_FUNES1_S3_S5_+0x90>
    156e:	41 0f be 74 24 43    	movsx  esi,BYTE PTR [r12+0x43]
    1574:	48 89 ef             	mov    rdi,rbp
    1577:	e8 d4 fb ff ff       	call   1150 <_ZNSo3putEc@plt>
    157c:	48 83 c4 08          	add    rsp,0x8
    1580:	5d                   	pop    rbp
    1581:	48 89 c7             	mov    rdi,rax
    1584:	41 5c                	pop    r12
    1586:	e9 f5 fb ff ff       	jmp    1180 <_ZNSo5flushEv@plt>
    158b:	0f 1f 44 00 00       	nop    DWORD PTR [rax+rax*1+0x0]
    1590:	4c 89 e7             	mov    rdi,r12
    1593:	e8 58 fc ff ff       	call   11f0 <_ZNKSt5ctypeIcE13_M_widen_initEv@plt>
    1598:	49 8b 04 24          	mov    rax,QWORD PTR [r12]
    159c:	be 0a 00 00 00       	mov    esi,0xa
    15a1:	48 8d 15 a8 15 00 00 	lea    rdx,[rip+0x15a8]        # 2b50 <_ZNKSt5ctypeIcE8do_widenEc>
    15a8:	48 8b 40 30          	mov    rax,QWORD PTR [rax+0x30]
    15ac:	48 39 d0             	cmp    rax,rdx
    15af:	74 c3                	je     1574 <_ZZ12to_interfaceR10FileLoggerENUlPvN7ILogger8SeverityEPKcE_4_FUNES1_S3_S5_+0x74>
    15b1:	4c 89 e7             	mov    rdi,r12
    15b4:	ff d0                	call   rax
    15b6:	0f be f0             	movsx  esi,al
    15b9:	eb b9                	jmp    1574 <_ZZ12to_interfaceR10FileLoggerENUlPvN7ILogger8SeverityEPKcE_4_FUNES1_S3_S5_+0x74>
    15bb:	0f 1f 44 00 00       	nop    DWORD PTR [rax+rax*1+0x0]
    15c0:	48 8b 45 00          	mov    rax,QWORD PTR [rbp+0x0]
    15c4:	48 8b 78 e8          	mov    rdi,QWORD PTR [rax-0x18]
    15c8:	48 01 ef             	add    rdi,rbp
    15cb:	8b 77 20             	mov    esi,DWORD PTR [rdi+0x20]
    15ce:	83 ce 01             	or     esi,0x1
    15d1:	e8 7a fc ff ff       	call   1250 <_ZNSt9basic_iosIcSt11char_traitsIcEE5clearESt12_Ios_Iostate@plt>
    15d6:	e9 72 ff ff ff       	jmp    154d <_ZZ12to_interfaceR10FileLoggerENUlPvN7ILogger8SeverityEPKcE_4_FUNES1_S3_S5_+0x4d>
    15db:	0f 1f 44 00 00       	nop    DWORD PTR [rax+rax*1+0x0]
    15e0:	ba 07 00 00 00       	mov    edx,0x7
    15e5:	48 8d 35 18 1a 00 00 	lea    rsi,[rip+0x1a18]        # 3004 <_IO_stdin_used+0x4>
    15ec:	e8 ef fb ff ff       	call   11e0 <_ZSt16__ostream_insertIcSt11char_traitsIcEERSt13basic_ostreamIT_T0_ES6_PKS3_l@plt>
    15f1:	e9 38 ff ff ff       	jmp    152e <_ZZ12to_interfaceR10FileLoggerENUlPvN7ILogger8SeverityEPKcE_4_FUNES1_S3_S5_+0x2e>
    15f6:	66 2e 0f 1f 84 00 00 	cs nop WORD PTR [rax+rax*1+0x0]
    15fd:	00 00 00 
    1600:	ba 08 00 00 00       	mov    edx,0x8
    1605:	48 8d 35 0b 1a 00 00 	lea    rsi,[rip+0x1a0b]        # 3017 <_IO_stdin_used+0x17>
    160c:	e8 cf fb ff ff       	call   11e0 <_ZSt16__ostream_insertIcSt11char_traitsIcEERSt13basic_ostreamIT_T0_ES6_PKS3_l@plt>
    1611:	e9 18 ff ff ff       	jmp    152e <_ZZ12to_interfaceR10FileLoggerENUlPvN7ILogger8SeverityEPKcE_4_FUNES1_S3_S5_+0x2e>
    1616:	66 2e 0f 1f 84 00 00 	cs nop WORD PTR [rax+rax*1+0x0]
    161d:	00 00 00 
    1620:	ba 0a 00 00 00       	mov    edx,0xa
    1625:	48 8d 35 e0 19 00 00 	lea    rsi,[rip+0x19e0]        # 300c <_IO_stdin_used+0xc>
    162c:	e8 af fb ff ff       	call   11e0 <_ZSt16__ostream_insertIcSt11char_traitsIcEERSt13basic_ostreamIT_T0_ES6_PKS3_l@plt>
    1631:	e9 f8 fe ff ff       	jmp    152e <_ZZ12to_interfaceR10FileLoggerENUlPvN7ILogger8SeverityEPKcE_4_FUNES1_S3_S5_+0x2e>
    1636:	e8 e5 fb ff ff       	call   1220 <_ZSt16__throw_bad_castv@plt>
    163b:	0f 1f 44 00 00       	nop    DWORD PTR [rax+rax*1+0x0]

0000000000001640 <_Z5panicPKc>:
    1640:	f3 0f 1e fa          	endbr64
    1644:	41 54                	push   r12
    1646:	ba 06 00 00 00       	mov    edx,0x6
    164b:	48 8d 35 ce 19 00 00 	lea    rsi,[rip+0x19ce]        # 3020 <_IO_stdin_used+0x20>
    1652:	49 89 fc             	mov    r12,rdi
    1655:	55                   	push   rbp
    1656:	48 8d 2d e3 39 00 00 	lea    rbp,[rip+0x39e3]        # 5040 <_ZSt4cout@GLIBCXX_3.4>
    165d:	48 89 ef             	mov    rdi,rbp
    1660:	48 83 ec 08          	sub    rsp,0x8
    1664:	e8 77 fb ff ff       	call   11e0 <_ZSt16__ostream_insertIcSt11char_traitsIcEERSt13basic_ostreamIT_T0_ES6_PKS3_l@plt>
    1669:	48 89 ef             	mov    rdi,rbp
    166c:	e8 6f fd ff ff       	call   13e0 <_ZSt4endlIcSt11char_traitsIcEERSt13basic_ostreamIT_T0_ES6_.isra.0>
    1671:	4c 89 e6             	mov    rsi,r12
    1674:	48 89 ef             	mov    rdi,rbp
    1677:	e8 44 fb ff ff       	call   11c0 <_ZStlsISt11char_traitsIcEERSt13basic_ostreamIcT_ES5_PKc@plt>
    167c:	48 89 c7             	mov    rdi,rax
    167f:	e8 5c fd ff ff       	call   13e0 <_ZSt4endlIcSt11char_traitsIcEERSt13basic_ostreamIT_T0_ES6_.isra.0>
    1684:	bf 01 00 00 00       	mov    edi,0x1
    1689:	e8 82 fb ff ff       	call   1210 <exit@plt>
    168e:	66 90                	xchg   ax,ax

0000000000001690 <_Z7reserveIcEvR4ListIT_Em.part.0>:
    1690:	41 55                	push   r13
    1692:	49 89 f5             	mov    r13,rsi
    1695:	41 54                	push   r12
    1697:	4c 89 ea             	mov    rdx,r13
    169a:	55                   	push   rbp
    169b:	53                   	push   rbx
    169c:	48 89 fb             	mov    rbx,rdi
    169f:	48 83 ec 28          	sub    rsp,0x28
    16a3:	48 8b 77 18          	mov    rsi,QWORD PTR [rdi+0x18]
    16a7:	64 48 8b 04 25 28 00 	mov    rax,QWORD PTR fs:0x28
    16ae:	00 00 
    16b0:	48 89 44 24 18       	mov    QWORD PTR [rsp+0x18],rax
    16b5:	31 c0                	xor    eax,eax
    16b7:	48 89 e5             	mov    rbp,rsp
    16ba:	48 89 ef             	mov    rdi,rbp
    16bd:	ff 53 20             	call   QWORD PTR [rbx+0x20]
    16c0:	8b 05 96 3a 00 00    	mov    eax,DWORD PTR [rip+0x3a96]        # 515c <_ZN9CoreError7CorrectE>
    16c6:	39 04 24             	cmp    DWORD PTR [rsp],eax
    16c9:	74 15                	je     16e0 <_Z7reserveIcEvR4ListIT_Em.part.0+0x50>
    16cb:	48 8d 3d 55 19 00 00 	lea    rdi,[rip+0x1955]        # 3027 <_IO_stdin_used+0x27>
    16d2:	e8 69 ff ff ff       	call   1640 <_Z5panicPKc>
    16d7:	66 0f 1f 84 00 00 00 	nop    WORD PTR [rax+rax*1+0x0]
    16de:	00 00 
    16e0:	4c 8b 64 24 08       	mov    r12,QWORD PTR [rsp+0x8]
    16e5:	48 8b 33             	mov    rsi,QWORD PTR [rbx]
    16e8:	48 8b 53 08          	mov    rdx,QWORD PTR [rbx+0x8]
    16ec:	4c 89 e7             	mov    rdi,r12
    16ef:	e8 9c fa ff ff       	call   1190 <memcpy@plt>
    16f4:	48 8b 43 10          	mov    rax,QWORD PTR [rbx+0x10]
    16f8:	48 8b 13             	mov    rdx,QWORD PTR [rbx]
    16fb:	48 89 ee             	mov    rsi,rbp
    16fe:	48 8b 7b 18          	mov    rdi,QWORD PTR [rbx+0x18]
    1702:	48 89 14 24          	mov    QWORD PTR [rsp],rdx
    1706:	48 89 44 24 08       	mov    QWORD PTR [rsp+0x8],rax
    170b:	ff 53 28             	call   QWORD PTR [rbx+0x28]
    170e:	4c 89 23             	mov    QWORD PTR [rbx],r12
    1711:	4c 89 6b 10          	mov    QWORD PTR [rbx+0x10],r13
    1715:	48 8b 44 24 18       	mov    rax,QWORD PTR [rsp+0x18]
    171a:	64 48 2b 04 25 28 00 	sub    rax,QWORD PTR fs:0x28
    1721:	00 00 
    1723:	75 0b                	jne    1730 <_Z7reserveIcEvR4ListIT_Em.part.0+0xa0>
    1725:	48 83 c4 28          	add    rsp,0x28
    1729:	5b                   	pop    rbx
    172a:	5d                   	pop    rbp
    172b:	41 5c                	pop    r12
    172d:	41 5d                	pop    r13
    172f:	c3                   	ret
    1730:	e8 9b fa ff ff       	call   11d0 <__stack_chk_fail@plt>
    1735:	66 66 2e 0f 1f 84 00 	data16 cs nop WORD PTR [rax+rax*1+0x0]
    173c:	00 00 00 00 

0000000000001740 <_Z5panicNSt7__cxx1112basic_stringIcSt11char_traitsIcESaIcEEE>:
    1740:	f3 0f 1e fa          	endbr64
    1744:	55                   	push   rbp
    1745:	48 8d 2d f4 38 00 00 	lea    rbp,[rip+0x38f4]        # 5040 <_ZSt4cout@GLIBCXX_3.4>
    174c:	ba 06 00 00 00       	mov    edx,0x6
    1751:	48 8d 35 c8 18 00 00 	lea    rsi,[rip+0x18c8]        # 3020 <_IO_stdin_used+0x20>
    1758:	53                   	push   rbx
    1759:	48 89 fb             	mov    rbx,rdi
    175c:	48 89 ef             	mov    rdi,rbp
    175f:	48 83 ec 08          	sub    rsp,0x8
    1763:	e8 78 fa ff ff       	call   11e0 <_ZSt16__ostream_insertIcSt11char_traitsIcEERSt13basic_ostreamIT_T0_ES6_PKS3_l@plt>
    1768:	48 89 ef             	mov    rdi,rbp
    176b:	e8 70 fc ff ff       	call   13e0 <_ZSt4endlIcSt11char_traitsIcEERSt13basic_ostreamIT_T0_ES6_.isra.0>
    1770:	48 8b 53 08          	mov    rdx,QWORD PTR [rbx+0x8]
    1774:	48 8b 33             	mov    rsi,QWORD PTR [rbx]
    1777:	48 89 ef             	mov    rdi,rbp
    177a:	e8 61 fa ff ff       	call   11e0 <_ZSt16__ostream_insertIcSt11char_traitsIcEERSt13basic_ostreamIT_T0_ES6_PKS3_l@plt>
    177f:	48 89 c7             	mov    rdi,rax
    1782:	e8 59 fc ff ff       	call   13e0 <_ZSt4endlIcSt11char_traitsIcEERSt13basic_ostreamIT_T0_ES6_.isra.0>
    1787:	bf 01 00 00 00       	mov    edi,0x1
    178c:	e8 7f fa ff ff       	call   1210 <exit@plt>
    1791:	66 66 2e 0f 1f 84 00 	data16 cs nop WORD PTR [rax+rax*1+0x0]
    1798:	00 00 00 00 
    179c:	0f 1f 40 00          	nop    DWORD PTR [rax+0x0]

00000000000017a0 <_Z5panicv>:
    17a0:	f3 0f 1e fa          	endbr64
    17a4:	55                   	push   rbp
    17a5:	48 8d 2d 94 38 00 00 	lea    rbp,[rip+0x3894]        # 5040 <_ZSt4cout@GLIBCXX_3.4>
    17ac:	ba 05 00 00 00       	mov    edx,0x5
    17b1:	48 8d 35 76 18 00 00 	lea    rsi,[rip+0x1876]        # 302e <_IO_stdin_used+0x2e>
    17b8:	48 89 ef             	mov    rdi,rbp
    17bb:	e8 20 fa ff ff       	call   11e0 <_ZSt16__ostream_insertIcSt11char_traitsIcEERSt13basic_ostreamIT_T0_ES6_PKS3_l@plt>
    17c0:	48 89 ef             	mov    rdi,rbp
    17c3:	e8 18 fc ff ff       	call   13e0 <_ZSt4endlIcSt11char_traitsIcEERSt13basic_ostreamIT_T0_ES6_.isra.0>
    17c8:	bf 01 00 00 00       	mov    edi,0x1
    17cd:	e8 3e fa ff ff       	call   1210 <exit@plt>
    17d2:	66 66 2e 0f 1f 84 00 	data16 cs nop WORD PTR [rax+rax*1+0x0]
    17d9:	00 00 00 00 
    17dd:	0f 1f 00             	nop    DWORD PTR [rax]

00000000000017e0 <_Z7destroyR7ILogger>:
    17e0:	f3 0f 1e fa          	endbr64
    17e4:	48 8b 47 10          	mov    rax,QWORD PTR [rdi+0x10]
    17e8:	48 8b 3f             	mov    rdi,QWORD PTR [rdi]
    17eb:	ff e0                	jmp    rax
    17ed:	0f 1f 00             	nop    DWORD PTR [rax]

00000000000017f0 <_Z3logR7ILoggerNS_8SeverityEPKc>:
    17f0:	f3 0f 1e fa          	endbr64
    17f4:	48 8b 47 08          	mov    rax,QWORD PTR [rdi+0x8]
    17f8:	40 0f b6 f6          	movzx  esi,sil
    17fc:	48 8b 3f             	mov    rdi,QWORD PTR [rdi]
    17ff:	ff e0                	jmp    rax
    1801:	66 66 2e 0f 1f 84 00 	data16 cs nop WORD PTR [rax+rax*1+0x0]
    1808:	00 00 00 00 
    180c:	0f 1f 40 00          	nop    DWORD PTR [rax+0x0]

0000000000001810 <_Z8log_infoR7ILoggerPKc>:
    1810:	f3 0f 1e fa          	endbr64
    1814:	48 8b 47 08          	mov    rax,QWORD PTR [rdi+0x8]
    1818:	48 89 f2             	mov    rdx,rsi
    181b:	48 8b 3f             	mov    rdi,QWORD PTR [rdi]
    181e:	31 f6                	xor    esi,esi
    1820:	ff e0                	jmp    rax
    1822:	66 66 2e 0f 1f 84 00 	data16 cs nop WORD PTR [rax+rax*1+0x0]
    1829:	00 00 00 00 
    182d:	0f 1f 00             	nop    DWORD PTR [rax]

0000000000001830 <_Z11log_warningR7ILoggerPKc>:
    1830:	f3 0f 1e fa          	endbr64
    1834:	48 8b 47 08          	mov    rax,QWORD PTR [rdi+0x8]
    1838:	48 89 f2             	mov    rdx,rsi
    183b:	48 8b 3f             	mov    rdi,QWORD PTR [rdi]
    183e:	be 01 00 00 00       	mov    esi,0x1
    1843:	ff e0                	jmp    rax
    1845:	66 66 2e 0f 1f 84 00 	data16 cs nop WORD PTR [rax+rax*1+0x0]
    184c:	00 00 00 00 

0000000000001850 <_Z9log_errorR7ILoggerPKc>:
    1850:	f3 0f 1e fa          	endbr64
    1854:	48 8b 47 08          	mov    rax,QWORD PTR [rdi+0x8]
    1858:	48 89 f2             	mov    rdx,rsi
    185b:	48 8b 3f             	mov    rdi,QWORD PTR [rdi]
    185e:	be 02 00 00 00       	mov    esi,0x2
    1863:	ff e0                	jmp    rax
    1865:	66 66 2e 0f 1f 84 00 	data16 cs nop WORD PTR [rax+rax*1+0x0]
    186c:	00 00 00 00 

0000000000001870 <_Z4initR10FileLoggerPKc>:
    1870:	f3 0f 1e fa          	endbr64
    1874:	53                   	push   rbx
    1875:	ba 10 00 00 00       	mov    edx,0x10
    187a:	48 89 fb             	mov    rbx,rdi
    187d:	48 83 c7 08          	add    rdi,0x8
    1881:	e8 2a f9 ff ff       	call   11b0 <_ZNSt13basic_filebufIcSt11char_traitsIcEE4openEPKcSt13_Ios_Openmode@plt>
    1886:	48 85 c0             	test   rax,rax
    1889:	48 8b 03             	mov    rax,QWORD PTR [rbx]
    188c:	74 12                	je     18a0 <_Z4initR10FileLoggerPKc+0x30>
    188e:	48 03 58 e8          	add    rbx,QWORD PTR [rax-0x18]
    1892:	31 f6                	xor    esi,esi
    1894:	48 89 df             	mov    rdi,rbx
    1897:	5b                   	pop    rbx
    1898:	e9 b3 f9 ff ff       	jmp    1250 <_ZNSt9basic_iosIcSt11char_traitsIcEE5clearESt12_Ios_Iostate@plt>
    189d:	0f 1f 00             	nop    DWORD PTR [rax]
    18a0:	48 03 58 e8          	add    rbx,QWORD PTR [rax-0x18]
    18a4:	8b 73 20             	mov    esi,DWORD PTR [rbx+0x20]
    18a7:	48 89 df             	mov    rdi,rbx
    18aa:	5b                   	pop    rbx
    18ab:	83 ce 04             	or     esi,0x4
    18ae:	e9 9d f9 ff ff       	jmp    1250 <_ZNSt9basic_iosIcSt11char_traitsIcEE5clearESt12_Ios_Iostate@plt>
    18b3:	66 66 2e 0f 1f 84 00 	data16 cs nop WORD PTR [rax+rax*1+0x0]
    18ba:	00 00 00 00 
    18be:	66 90                	xchg   ax,ax

00000000000018c0 <_Z7destroyR10FileLogger>:
    18c0:	f3 0f 1e fa          	endbr64
    18c4:	53                   	push   rbx
    18c5:	48 89 fb             	mov    rbx,rdi
    18c8:	48 83 c7 08          	add    rdi,0x8
    18cc:	e8 8f f8 ff ff       	call   1160 <_ZNSt13basic_filebufIcSt11char_traitsIcEE5closeEv@plt>
    18d1:	48 85 c0             	test   rax,rax
    18d4:	74 0a                	je     18e0 <_Z7destroyR10FileLogger+0x20>
    18d6:	5b                   	pop    rbx
    18d7:	c3                   	ret
    18d8:	0f 1f 84 00 00 00 00 	nop    DWORD PTR [rax+rax*1+0x0]
    18df:	00 
    18e0:	48 8b 03             	mov    rax,QWORD PTR [rbx]
    18e3:	48 03 58 e8          	add    rbx,QWORD PTR [rax-0x18]
    18e7:	8b 73 20             	mov    esi,DWORD PTR [rbx+0x20]
    18ea:	48 89 df             	mov    rdi,rbx
    18ed:	5b                   	pop    rbx
    18ee:	83 ce 04             	or     esi,0x4
    18f1:	e9 5a f9 ff ff       	jmp    1250 <_ZNSt9basic_iosIcSt11char_traitsIcEE5clearESt12_Ios_Iostate@plt>
    18f6:	66 2e 0f 1f 84 00 00 	cs nop WORD PTR [rax+rax*1+0x0]
    18fd:	00 00 00 

0000000000001900 <_Z3logR10FileLoggerN7ILogger8SeverityEPKc>:
    1900:	f3 0f 1e fa          	endbr64
    1904:	41 54                	push   r12
    1906:	49 89 d4             	mov    r12,rdx
    1909:	55                   	push   rbp
    190a:	48 89 fd             	mov    rbp,rdi
    190d:	48 83 ec 08          	sub    rsp,0x8
    1911:	40 80 fe 01          	cmp    sil,0x1
    1915:	0f 84 05 01 00 00    	je     1a20 <_Z3logR10FileLoggerN7ILogger8SeverityEPKc+0x120>
    191b:	40 80 fe 02          	cmp    sil,0x2
    191f:	0f 84 db 00 00 00    	je     1a00 <_Z3logR10FileLoggerN7ILogger8SeverityEPKc+0x100>
    1925:	40 84 f6             	test   sil,sil
    1928:	0f 84 b2 00 00 00    	je     19e0 <_Z3logR10FileLoggerN7ILogger8SeverityEPKc+0xe0>
    192e:	4d 85 e4             	test   r12,r12
    1931:	0f 84 89 00 00 00    	je     19c0 <_Z3logR10FileLoggerN7ILogger8SeverityEPKc+0xc0>
    1937:	4c 89 e7             	mov    rdi,r12
    193a:	e8 31 f8 ff ff       	call   1170 <strlen@plt>
    193f:	4c 89 e6             	mov    rsi,r12
    1942:	48 89 ef             	mov    rdi,rbp
    1945:	48 89 c2             	mov    rdx,rax
    1948:	e8 93 f8 ff ff       	call   11e0 <_ZSt16__ostream_insertIcSt11char_traitsIcEERSt13basic_ostreamIT_T0_ES6_PKS3_l@plt>
    194d:	48 8b 45 00          	mov    rax,QWORD PTR [rbp+0x0]
    1951:	48 8b 40 e8          	mov    rax,QWORD PTR [rax-0x18]
    1955:	4c 8b a4 05 f0 00 00 	mov    r12,QWORD PTR [rbp+rax*1+0xf0]
    195c:	00 
    195d:	4d 85 e4             	test   r12,r12
    1960:	0f 84 d0 00 00 00    	je     1a36 <_Z3logR10FileLoggerN7ILogger8SeverityEPKc+0x136>
    1966:	41 80 7c 24 38 00    	cmp    BYTE PTR [r12+0x38],0x0
    196c:	74 22                	je     1990 <_Z3logR10FileLoggerN7ILogger8SeverityEPKc+0x90>
    196e:	41 0f be 74 24 43    	movsx  esi,BYTE PTR [r12+0x43]
    1974:	48 89 ef             	mov    rdi,rbp
    1977:	e8 d4 f7 ff ff       	call   1150 <_ZNSo3putEc@plt>
    197c:	48 83 c4 08          	add    rsp,0x8
    1980:	5d                   	pop    rbp
    1981:	48 89 c7             	mov    rdi,rax
    1984:	41 5c                	pop    r12
    1986:	e9 f5 f7 ff ff       	jmp    1180 <_ZNSo5flushEv@plt>
    198b:	0f 1f 44 00 00       	nop    DWORD PTR [rax+rax*1+0x0]
    1990:	4c 89 e7             	mov    rdi,r12
    1993:	e8 58 f8 ff ff       	call   11f0 <_ZNKSt5ctypeIcE13_M_widen_initEv@plt>
    1998:	49 8b 04 24          	mov    rax,QWORD PTR [r12]
    199c:	be 0a 00 00 00       	mov    esi,0xa
    19a1:	48 8d 15 a8 11 00 00 	lea    rdx,[rip+0x11a8]        # 2b50 <_ZNKSt5ctypeIcE8do_widenEc>
    19a8:	48 8b 40 30          	mov    rax,QWORD PTR [rax+0x30]
    19ac:	48 39 d0             	cmp    rax,rdx
    19af:	74 c3                	je     1974 <_Z3logR10FileLoggerN7ILogger8SeverityEPKc+0x74>
    19b1:	4c 89 e7             	mov    rdi,r12
    19b4:	ff d0                	call   rax
    19b6:	0f be f0             	movsx  esi,al
    19b9:	eb b9                	jmp    1974 <_Z3logR10FileLoggerN7ILogger8SeverityEPKc+0x74>
    19bb:	0f 1f 44 00 00       	nop    DWORD PTR [rax+rax*1+0x0]
    19c0:	48 8b 45 00          	mov    rax,QWORD PTR [rbp+0x0]
    19c4:	48 8b 78 e8          	mov    rdi,QWORD PTR [rax-0x18]
    19c8:	48 01 ef             	add    rdi,rbp
    19cb:	8b 77 20             	mov    esi,DWORD PTR [rdi+0x20]
    19ce:	83 ce 01             	or     esi,0x1
    19d1:	e8 7a f8 ff ff       	call   1250 <_ZNSt9basic_iosIcSt11char_traitsIcEE5clearESt12_Ios_Iostate@plt>
    19d6:	e9 72 ff ff ff       	jmp    194d <_Z3logR10FileLoggerN7ILogger8SeverityEPKc+0x4d>
    19db:	0f 1f 44 00 00       	nop    DWORD PTR [rax+rax*1+0x0]
    19e0:	ba 07 00 00 00       	mov    edx,0x7
    19e5:	48 8d 35 18 16 00 00 	lea    rsi,[rip+0x1618]        # 3004 <_IO_stdin_used+0x4>
    19ec:	e8 ef f7 ff ff       	call   11e0 <_ZSt16__ostream_insertIcSt11char_traitsIcEERSt13basic_ostreamIT_T0_ES6_PKS3_l@plt>
    19f1:	e9 38 ff ff ff       	jmp    192e <_Z3logR10FileLoggerN7ILogger8SeverityEPKc+0x2e>
    19f6:	66 2e 0f 1f 84 00 00 	cs nop WORD PTR [rax+rax*1+0x0]
    19fd:	00 00 00 
    1a00:	ba 08 00 00 00       	mov    edx,0x8
    1a05:	48 8d 35 0b 16 00 00 	lea    rsi,[rip+0x160b]        # 3017 <_IO_stdin_used+0x17>
    1a0c:	e8 cf f7 ff ff       	call   11e0 <_ZSt16__ostream_insertIcSt11char_traitsIcEERSt13basic_ostreamIT_T0_ES6_PKS3_l@plt>
    1a11:	e9 18 ff ff ff       	jmp    192e <_Z3logR10FileLoggerN7ILogger8SeverityEPKc+0x2e>
    1a16:	66 2e 0f 1f 84 00 00 	cs nop WORD PTR [rax+rax*1+0x0]
    1a1d:	00 00 00 
    1a20:	ba 0a 00 00 00       	mov    edx,0xa
    1a25:	48 8d 35 e0 15 00 00 	lea    rsi,[rip+0x15e0]        # 300c <_IO_stdin_used+0xc>
    1a2c:	e8 af f7 ff ff       	call   11e0 <_ZSt16__ostream_insertIcSt11char_traitsIcEERSt13basic_ostreamIT_T0_ES6_PKS3_l@plt>
    1a31:	e9 f8 fe ff ff       	jmp    192e <_Z3logR10FileLoggerN7ILogger8SeverityEPKc+0x2e>
    1a36:	e8 e5 f7 ff ff       	call   1220 <_ZSt16__throw_bad_castv@plt>
    1a3b:	0f 1f 44 00 00       	nop    DWORD PTR [rax+rax*1+0x0]

0000000000001a40 <_Z12to_interfaceR10FileLogger>:
    1a40:	f3 0f 1e fa          	endbr64
    1a44:	48 8d 15 15 fa ff ff 	lea    rdx,[rip+0xfffffffffffffa15]        # 1460 <_ZZ12to_interfaceR10FileLoggerENUlPvE0_4_FUNES1_>
    1a4b:	48 8d 0d ae fa ff ff 	lea    rcx,[rip+0xfffffffffffffaae]        # 1500 <_ZZ12to_interfaceR10FileLoggerENUlPvN7ILogger8SeverityEPKcE_4_FUNES1_S3_S5_>
    1a52:	48 89 37             	mov    QWORD PTR [rdi],rsi
    1a55:	48 89 f8             	mov    rax,rdi
    1a58:	66 48 0f 6e c1       	movq   xmm0,rcx
    1a5d:	66 48 0f 6e ca       	movq   xmm1,rdx
    1a62:	66 0f 6c c1          	punpcklqdq xmm0,xmm1
    1a66:	0f 11 47 08          	movups XMMWORD PTR [rdi+0x8],xmm0
    1a6a:	c3                   	ret
    1a6b:	0f 1f 44 00 00       	nop    DWORD PTR [rax+rax*1+0x0]

0000000000001a70 <_Z6chunckR3Rawmm>:
    1a70:	f3 0f 1e fa          	endbr64
    1a74:	48 89 f8             	mov    rax,rdi
    1a77:	48 8d 3c 0a          	lea    rdi,[rdx+rcx*1]
    1a7b:	48 3b 7e 08          	cmp    rdi,QWORD PTR [rsi+0x8]
    1a7f:	76 1f                	jbe    1aa0 <_Z6chunckR3Rawmm+0x30>
    1a81:	8b 15 d1 36 00 00    	mov    edx,DWORD PTR [rip+0x36d1]        # 5158 <_ZN11MemoryError14NotEnoughSpaceE>
    1a87:	66 0f ef c0          	pxor   xmm0,xmm0
    1a8b:	48 c7 40 10 00 00 00 	mov    QWORD PTR [rax+0x10],0x0
    1a92:	00 
    1a93:	0f 11 00             	movups XMMWORD PTR [rax],xmm0
    1a96:	89 10                	mov    DWORD PTR [rax],edx
    1a98:	c3                   	ret
    1a99:	0f 1f 80 00 00 00 00 	nop    DWORD PTR [rax+0x0]
    1aa0:	8b 3d b6 36 00 00    	mov    edi,DWORD PTR [rip+0x36b6]        # 515c <_ZN9CoreError7CorrectE>
    1aa6:	48 03 0e             	add    rcx,QWORD PTR [rsi]
    1aa9:	48 89 50 10          	mov    QWORD PTR [rax+0x10],rdx
    1aad:	48 89 48 08          	mov    QWORD PTR [rax+0x8],rcx
    1ab1:	89 38                	mov    DWORD PTR [rax],edi
    1ab3:	c3                   	ret
    1ab4:	66 66 2e 0f 1f 84 00 	data16 cs nop WORD PTR [rax+rax*1+0x0]
    1abb:	00 00 00 00 
    1abf:	90                   	nop

0000000000001ac0 <_Z8allocatem>:
    1ac0:	f3 0f 1e fa          	endbr64
    1ac4:	41 54                	push   r12
    1ac6:	49 89 fc             	mov    r12,rdi
    1ac9:	48 89 f7             	mov    rdi,rsi
    1acc:	53                   	push   rbx
    1acd:	48 89 f3             	mov    rbx,rsi
    1ad0:	48 83 ec 08          	sub    rsp,0x8
    1ad4:	e8 57 f7 ff ff       	call   1230 <malloc@plt>
    1ad9:	48 85 c0             	test   rax,rax
    1adc:	74 1f                	je     1afd <_Z8allocatem+0x3d>
    1ade:	8b 15 78 36 00 00    	mov    edx,DWORD PTR [rip+0x3678]        # 515c <_ZN9CoreError7CorrectE>
    1ae4:	49 89 44 24 08       	mov    QWORD PTR [r12+0x8],rax
    1ae9:	49 89 5c 24 10       	mov    QWORD PTR [r12+0x10],rbx
    1aee:	41 89 14 24          	mov    DWORD PTR [r12],edx
    1af2:	48 83 c4 08          	add    rsp,0x8
    1af6:	4c 89 e0             	mov    rax,r12
    1af9:	5b                   	pop    rbx
    1afa:	41 5c                	pop    r12
    1afc:	c3                   	ret
    1afd:	b9 06 00 00 00       	mov    ecx,0x6
    1b02:	4c 89 e7             	mov    rdi,r12
    1b05:	f3 ab                	rep stos DWORD PTR es:[rdi],eax
    1b07:	8b 05 47 36 00 00    	mov    eax,DWORD PTR [rip+0x3647]        # 5154 <_ZN11MemoryError10AllocationE>
    1b0d:	41 89 04 24          	mov    DWORD PTR [r12],eax
    1b11:	eb df                	jmp    1af2 <_Z8allocatem+0x32>
    1b13:	66 66 2e 0f 1f 84 00 	data16 cs nop WORD PTR [rax+rax*1+0x0]
    1b1a:	00 00 00 00 
    1b1e:	66 90                	xchg   ax,ax

0000000000001b20 <_Z4freeRK3Raw>:
    1b20:	f3 0f 1e fa          	endbr64
    1b24:	48 8b 3f             	mov    rdi,QWORD PTR [rdi]
    1b27:	e9 d4 f6 ff ff       	jmp    1200 <free@plt>
    1b2c:	0f 1f 40 00          	nop    DWORD PTR [rax+0x0]

0000000000001b30 <_Z12allocate_rawR10IAllocatorm>:
    1b30:	f3 0f 1e fa          	endbr64
    1b34:	41 54                	push   r12
    1b36:	48 89 f1             	mov    rcx,rsi
    1b39:	49 89 fc             	mov    r12,rdi
    1b3c:	48 83 ec 10          	sub    rsp,0x10
    1b40:	48 8b 36             	mov    rsi,QWORD PTR [rsi]
    1b43:	64 48 8b 04 25 28 00 	mov    rax,QWORD PTR fs:0x28
    1b4a:	00 00 
    1b4c:	48 89 44 24 08       	mov    QWORD PTR [rsp+0x8],rax
    1b51:	31 c0                	xor    eax,eax
    1b53:	ff 51 08             	call   QWORD PTR [rcx+0x8]
    1b56:	48 8b 44 24 08       	mov    rax,QWORD PTR [rsp+0x8]
    1b5b:	64 48 2b 04 25 28 00 	sub    rax,QWORD PTR fs:0x28
    1b62:	00 00 
    1b64:	75 0a                	jne    1b70 <_Z12allocate_rawR10IAllocatorm+0x40>
    1b66:	48 83 c4 10          	add    rsp,0x10
    1b6a:	4c 89 e0             	mov    rax,r12
    1b6d:	41 5c                	pop    r12
    1b6f:	c3                   	ret
    1b70:	e8 5b f6 ff ff       	call   11d0 <__stack_chk_fail@plt>
    1b75:	66 66 2e 0f 1f 84 00 	data16 cs nop WORD PTR [rax+rax*1+0x0]
    1b7c:	00 00 00 00 

0000000000001b80 <_Z8free_rawR10IAllocatorRK3Raw>:
    1b80:	f3 0f 1e fa          	endbr64
    1b84:	48 8b 47 10          	mov    rax,QWORD PTR [rdi+0x10]
    1b88:	48 8b 3f             	mov    rdi,QWORD PTR [rdi]
    1b8b:	ff e0                	jmp    rax
    1b8d:	0f 1f 00             	nop    DWORD PTR [rax]

0000000000001b90 <_Z12allocate_rawR14BasicAllocatorm>:
    1b90:	f3 0f 1e fa          	endbr64
    1b94:	41 54                	push   r12
    1b96:	49 89 fc             	mov    r12,rdi
    1b99:	48 89 d7             	mov    rdi,rdx
    1b9c:	53                   	push   rbx
    1b9d:	48 89 d3             	mov    rbx,rdx
    1ba0:	48 83 ec 08          	sub    rsp,0x8
    1ba4:	e8 87 f6 ff ff       	call   1230 <malloc@plt>
    1ba9:	48 85 c0             	test   rax,rax
    1bac:	74 1f                	je     1bcd <_Z12allocate_rawR14BasicAllocatorm+0x3d>
    1bae:	8b 15 a8 35 00 00    	mov    edx,DWORD PTR [rip+0x35a8]        # 515c <_ZN9CoreError7CorrectE>
    1bb4:	49 89 44 24 08       	mov    QWORD PTR [r12+0x8],rax
    1bb9:	49 89 5c 24 10       	mov    QWORD PTR [r12+0x10],rbx
    1bbe:	41 89 14 24          	mov    DWORD PTR [r12],edx
    1bc2:	48 83 c4 08          	add    rsp,0x8
    1bc6:	4c 89 e0             	mov    rax,r12
    1bc9:	5b                   	pop    rbx
    1bca:	41 5c                	pop    r12
    1bcc:	c3                   	ret
    1bcd:	b9 06 00 00 00       	mov    ecx,0x6
    1bd2:	4c 89 e7             	mov    rdi,r12
    1bd5:	f3 ab                	rep stos DWORD PTR es:[rdi],eax
    1bd7:	8b 05 77 35 00 00    	mov    eax,DWORD PTR [rip+0x3577]        # 5154 <_ZN11MemoryError10AllocationE>
    1bdd:	41 89 04 24          	mov    DWORD PTR [r12],eax
    1be1:	eb df                	jmp    1bc2 <_Z12allocate_rawR14BasicAllocatorm+0x32>
    1be3:	66 66 2e 0f 1f 84 00 	data16 cs nop WORD PTR [rax+rax*1+0x0]
    1bea:	00 00 00 00 
    1bee:	66 90                	xchg   ax,ax

0000000000001bf0 <_Z8free_rawR14BasicAllocatorRK3Raw>:
    1bf0:	f3 0f 1e fa          	endbr64
    1bf4:	48 8b 3e             	mov    rdi,QWORD PTR [rsi]
    1bf7:	e9 04 f6 ff ff       	jmp    1200 <free@plt>
    1bfc:	0f 1f 40 00          	nop    DWORD PTR [rax+0x0]

0000000000001c00 <_Z12to_interfaceR14BasicAllocator>:
    1c00:	f3 0f 1e fa          	endbr64
    1c04:	48 8d 15 c5 f7 ff ff 	lea    rdx,[rip+0xfffffffffffff7c5]        # 13d0 <_ZZ12to_interfaceR14BasicAllocatorENUlPvRK3RawE0_4_FUNES1_S4_>
    1c0b:	48 8d 0d 8e f8 ff ff 	lea    rcx,[rip+0xfffffffffffff88e]        # 14a0 <_ZZ12to_interfaceR14BasicAllocatorENUlPvmE_4_FUNES1_m>
    1c12:	48 89 37             	mov    QWORD PTR [rdi],rsi
    1c15:	48 89 f8             	mov    rax,rdi
    1c18:	66 48 0f 6e c1       	movq   xmm0,rcx
    1c1d:	66 48 0f 6e ca       	movq   xmm1,rdx
    1c22:	66 0f 6c c1          	punpcklqdq xmm0,xmm1
    1c26:	0f 11 47 08          	movups XMMWORD PTR [rdi+0x8],xmm0
    1c2a:	c3                   	ret
    1c2b:	0f 1f 44 00 00       	nop    DWORD PTR [rax+rax*1+0x0]

0000000000001c30 <_Z27len_of_utf8_from_first_bytec>:
    1c30:	f3 0f 1e fa          	endbr64
    1c34:	40 84 ff             	test   dil,dil
    1c37:	79 27                	jns    1c60 <_Z27len_of_utf8_from_first_bytec+0x30>
    1c39:	89 f8                	mov    eax,edi
    1c3b:	c0 e8 05             	shr    al,0x5
    1c3e:	3c 06                	cmp    al,0x6
    1c40:	74 3e                	je     1c80 <_Z27len_of_utf8_from_first_bytec+0x50>
    1c42:	89 f8                	mov    eax,edi
    1c44:	c0 e8 04             	shr    al,0x4
    1c47:	3c 0e                	cmp    al,0xe
    1c49:	74 25                	je     1c70 <_Z27len_of_utf8_from_first_bytec+0x40>
    1c4b:	40 c0 ef 03          	shr    dil,0x3
    1c4f:	40 80 ff 1e          	cmp    dil,0x1e
    1c53:	75 31                	jne    1c86 <_Z27len_of_utf8_from_first_bytec+0x56>
    1c55:	b8 04 00 00 00       	mov    eax,0x4
    1c5a:	c3                   	ret
    1c5b:	0f 1f 44 00 00       	nop    DWORD PTR [rax+rax*1+0x0]
    1c60:	b8 01 00 00 00       	mov    eax,0x1
    1c65:	c3                   	ret
    1c66:	66 2e 0f 1f 84 00 00 	cs nop WORD PTR [rax+rax*1+0x0]
    1c6d:	00 00 00 
    1c70:	b8 03 00 00 00       	mov    eax,0x3
    1c75:	c3                   	ret
    1c76:	66 2e 0f 1f 84 00 00 	cs nop WORD PTR [rax+rax*1+0x0]
    1c7d:	00 00 00 
    1c80:	b8 02 00 00 00       	mov    eax,0x2
    1c85:	c3                   	ret
    1c86:	50                   	push   rax
    1c87:	48 8d 3d a6 13 00 00 	lea    rdi,[rip+0x13a6]        # 3034 <_IO_stdin_used+0x34>
    1c8e:	e8 ad f9 ff ff       	call   1640 <_Z5panicPKc>
    1c93:	66 66 2e 0f 1f 84 00 	data16 cs nop WORD PTR [rax+rax*1+0x0]
    1c9a:	00 00 00 00 
    1c9e:	66 90                	xchg   ax,ax

0000000000001ca0 <_Z3setR8UTF8CharPKc>:
    1ca0:	f3 0f 1e fa          	endbr64
    1ca4:	c7 07 00 00 00 00    	mov    DWORD PTR [rdi],0x0
    1caa:	0f b6 06             	movzx  eax,BYTE PTR [rsi]
    1cad:	84 c0                	test   al,al
    1caf:	79 3f                	jns    1cf0 <_Z3setR8UTF8CharPKc+0x50>
    1cb1:	89 c2                	mov    edx,eax
    1cb3:	c0 ea 05             	shr    dl,0x5
    1cb6:	80 fa 06             	cmp    dl,0x6
    1cb9:	74 65                	je     1d20 <_Z3setR8UTF8CharPKc+0x80>
    1cbb:	89 c2                	mov    edx,eax
    1cbd:	c0 ea 04             	shr    dl,0x4
    1cc0:	80 fa 0e             	cmp    dl,0xe
    1cc3:	74 3b                	je     1d00 <_Z3setR8UTF8CharPKc+0x60>
    1cc5:	89 c2                	mov    edx,eax
    1cc7:	c0 ea 03             	shr    dl,0x3
    1cca:	80 fa 1e             	cmp    dl,0x1e
    1ccd:	75 60                	jne    1d2f <_Z3setR8UTF8CharPKc+0x8f>
    1ccf:	88 07                	mov    BYTE PTR [rdi],al
    1cd1:	0f b6 46 01          	movzx  eax,BYTE PTR [rsi+0x1]
    1cd5:	88 47 01             	mov    BYTE PTR [rdi+0x1],al
    1cd8:	0f b6 46 02          	movzx  eax,BYTE PTR [rsi+0x2]
    1cdc:	88 47 02             	mov    BYTE PTR [rdi+0x2],al
    1cdf:	0f b6 46 03          	movzx  eax,BYTE PTR [rsi+0x3]
    1ce3:	88 47 03             	mov    BYTE PTR [rdi+0x3],al
    1ce6:	b8 04 00 00 00       	mov    eax,0x4
    1ceb:	c3                   	ret
    1cec:	0f 1f 40 00          	nop    DWORD PTR [rax+0x0]
    1cf0:	88 07                	mov    BYTE PTR [rdi],al
    1cf2:	b8 01 00 00 00       	mov    eax,0x1
    1cf7:	c3                   	ret
    1cf8:	0f 1f 84 00 00 00 00 	nop    DWORD PTR [rax+rax*1+0x0]
    1cff:	00 
    1d00:	88 07                	mov    BYTE PTR [rdi],al
    1d02:	0f b6 46 01          	movzx  eax,BYTE PTR [rsi+0x1]
    1d06:	88 47 01             	mov    BYTE PTR [rdi+0x1],al
    1d09:	0f b6 46 02          	movzx  eax,BYTE PTR [rsi+0x2]
    1d0d:	88 47 02             	mov    BYTE PTR [rdi+0x2],al
    1d10:	b8 03 00 00 00       	mov    eax,0x3
    1d15:	c3                   	ret
    1d16:	66 2e 0f 1f 84 00 00 	cs nop WORD PTR [rax+rax*1+0x0]
    1d1d:	00 00 00 
    1d20:	88 07                	mov    BYTE PTR [rdi],al
    1d22:	0f b6 46 01          	movzx  eax,BYTE PTR [rsi+0x1]
    1d26:	88 47 01             	mov    BYTE PTR [rdi+0x1],al
    1d29:	b8 02 00 00 00       	mov    eax,0x2
    1d2e:	c3                   	ret
    1d2f:	50                   	push   rax
    1d30:	48 8d 3d fd 12 00 00 	lea    rdi,[rip+0x12fd]        # 3034 <_IO_stdin_used+0x34>
    1d37:	e8 04 f9 ff ff       	call   1640 <_Z5panicPKc>
    1d3c:	0f 1f 40 00          	nop    DWORD PTR [rax+0x0]

0000000000001d40 <_Z3setR8UTF8Charc>:
    1d40:	f3 0f 1e fa          	endbr64
    1d44:	31 c0                	xor    eax,eax
    1d46:	40 88 37             	mov    BYTE PTR [rdi],sil
    1d49:	66 89 47 01          	mov    WORD PTR [rdi+0x1],ax
    1d4d:	b8 01 00 00 00       	mov    eax,0x1
    1d52:	c6 47 03 00          	mov    BYTE PTR [rdi+0x3],0x0
    1d56:	c3                   	ret
    1d57:	66 0f 1f 84 00 00 00 	nop    WORD PTR [rax+rax*1+0x0]
    1d5e:	00 00 

0000000000001d60 <_Z5equal8UTF8Charc>:
    1d60:	f3 0f 1e fa          	endbr64
    1d64:	40 38 fe             	cmp    sil,dil
    1d67:	0f 94 c0             	sete   al
    1d6a:	c3                   	ret
    1d6b:	0f 1f 44 00 00       	nop    DWORD PTR [rax+rax*1+0x0]

0000000000001d70 <_Z5equal8UTF8CharPKc>:
    1d70:	f3 0f 1e fa          	endbr64
    1d74:	0f b6 16             	movzx  edx,BYTE PTR [rsi]
    1d77:	89 f8                	mov    eax,edi
    1d79:	84 d2                	test   dl,dl
    1d7b:	79 53                	jns    1dd0 <_Z5equal8UTF8CharPKc+0x60>
    1d7d:	0f be cc             	movsx  ecx,ah
    1d80:	41 89 c9             	mov    r9d,ecx
    1d83:	89 d1                	mov    ecx,edx
    1d85:	c0 e9 05             	shr    cl,0x5
    1d88:	80 f9 06             	cmp    cl,0x6
    1d8b:	74 73                	je     1e00 <_Z5equal8UTF8CharPKc+0x90>
    1d8d:	89 f9                	mov    ecx,edi
    1d8f:	89 d7                	mov    edi,edx
    1d91:	c1 e1 08             	shl    ecx,0x8
    1d94:	40 c0 ef 04          	shr    dil,0x4
    1d98:	c1 f9 18             	sar    ecx,0x18
    1d9b:	40 80 ff 0e          	cmp    dil,0xe
    1d9f:	74 3f                	je     1de0 <_Z5equal8UTF8CharPKc+0x70>
    1da1:	89 d7                	mov    edi,edx
    1da3:	40 c0 ef 03          	shr    dil,0x3
    1da7:	40 80 ff 1e          	cmp    dil,0x1e
    1dab:	75 65                	jne    1e12 <_Z5equal8UTF8CharPKc+0xa2>
    1dad:	45 31 c0             	xor    r8d,r8d
    1db0:	38 c2                	cmp    dl,al
    1db2:	75 23                	jne    1dd7 <_Z5equal8UTF8CharPKc+0x67>
    1db4:	44 38 4e 01          	cmp    BYTE PTR [rsi+0x1],r9b
    1db8:	75 1d                	jne    1dd7 <_Z5equal8UTF8CharPKc+0x67>
    1dba:	3a 4e 02             	cmp    cl,BYTE PTR [rsi+0x2]
    1dbd:	75 18                	jne    1dd7 <_Z5equal8UTF8CharPKc+0x67>
    1dbf:	c1 f8 18             	sar    eax,0x18
    1dc2:	38 46 03             	cmp    BYTE PTR [rsi+0x3],al
    1dc5:	41 0f 94 c0          	sete   r8b
    1dc9:	eb 0c                	jmp    1dd7 <_Z5equal8UTF8CharPKc+0x67>
    1dcb:	0f 1f 44 00 00       	nop    DWORD PTR [rax+rax*1+0x0]
    1dd0:	40 38 fa             	cmp    dl,dil
    1dd3:	41 0f 94 c0          	sete   r8b
    1dd7:	44 89 c0             	mov    eax,r8d
    1dda:	c3                   	ret
    1ddb:	0f 1f 44 00 00       	nop    DWORD PTR [rax+rax*1+0x0]
    1de0:	45 31 c0             	xor    r8d,r8d
    1de3:	38 c2                	cmp    dl,al
    1de5:	75 f0                	jne    1dd7 <_Z5equal8UTF8CharPKc+0x67>
    1de7:	44 38 4e 01          	cmp    BYTE PTR [rsi+0x1],r9b
    1deb:	75 ea                	jne    1dd7 <_Z5equal8UTF8CharPKc+0x67>
    1ded:	38 4e 02             	cmp    BYTE PTR [rsi+0x2],cl
    1df0:	41 0f 94 c0          	sete   r8b
    1df4:	eb e1                	jmp    1dd7 <_Z5equal8UTF8CharPKc+0x67>
    1df6:	66 2e 0f 1f 84 00 00 	cs nop WORD PTR [rax+rax*1+0x0]
    1dfd:	00 00 00 
    1e00:	45 31 c0             	xor    r8d,r8d
    1e03:	40 38 fa             	cmp    dl,dil
    1e06:	75 cf                	jne    1dd7 <_Z5equal8UTF8CharPKc+0x67>
    1e08:	44 38 4e 01          	cmp    BYTE PTR [rsi+0x1],r9b
    1e0c:	41 0f 94 c0          	sete   r8b
    1e10:	eb c5                	jmp    1dd7 <_Z5equal8UTF8CharPKc+0x67>
    1e12:	50                   	push   rax
    1e13:	48 8d 3d 1a 12 00 00 	lea    rdi,[rip+0x121a]        # 3034 <_IO_stdin_used+0x34>
    1e1a:	e8 21 f8 ff ff       	call   1640 <_Z5panicPKc>
    1e1f:	90                   	nop

0000000000001e20 <_Z5equal8UTF8CharS_>:
    1e20:	f3 0f 1e fa          	endbr64
    1e24:	89 f0                	mov    eax,esi
    1e26:	45 31 c0             	xor    r8d,r8d
    1e29:	40 38 f7             	cmp    dil,sil
    1e2c:	74 0a                	je     1e38 <_Z5equal8UTF8CharS_+0x18>
    1e2e:	44 89 c0             	mov    eax,r8d
    1e31:	c3                   	ret
    1e32:	66 0f 1f 44 00 00    	nop    WORD PTR [rax+rax*1+0x0]
    1e38:	89 fa                	mov    edx,edi
    1e3a:	0f be cc             	movsx  ecx,ah
    1e3d:	0f be f6             	movsx  esi,dh
    1e40:	40 38 ce             	cmp    sil,cl
    1e43:	75 e9                	jne    1e2e <_Z5equal8UTF8CharS_+0xe>
    1e45:	89 fe                	mov    esi,edi
    1e47:	89 c1                	mov    ecx,eax
    1e49:	c1 e6 08             	shl    esi,0x8
    1e4c:	c1 e1 08             	shl    ecx,0x8
    1e4f:	c1 fe 18             	sar    esi,0x18
    1e52:	c1 f9 18             	sar    ecx,0x18
    1e55:	40 38 ce             	cmp    sil,cl
    1e58:	75 d4                	jne    1e2e <_Z5equal8UTF8CharS_+0xe>
    1e5a:	c1 fa 18             	sar    edx,0x18
    1e5d:	c1 f8 18             	sar    eax,0x18
    1e60:	38 c2                	cmp    dl,al
    1e62:	41 0f 94 c0          	sete   r8b
    1e66:	eb c6                	jmp    1e2e <_Z5equal8UTF8CharS_+0xe>
    1e68:	0f 1f 84 00 00 00 00 	nop    DWORD PTR [rax+rax*1+0x0]
    1e6f:	00 

0000000000001e70 <_ZlsRSoRK8UTF8Char>:
    1e70:	f3 0f 1e fa          	endbr64
    1e74:	41 54                	push   r12
    1e76:	49 89 fc             	mov    r12,rdi
    1e79:	48 89 f7             	mov    rdi,rsi
    1e7c:	55                   	push   rbp
    1e7d:	48 89 f5             	mov    rbp,rsi
    1e80:	48 83 ec 08          	sub    rsp,0x8
    1e84:	e8 e7 f2 ff ff       	call   1170 <strlen@plt>
    1e89:	48 89 ee             	mov    rsi,rbp
    1e8c:	4c 89 e7             	mov    rdi,r12
    1e8f:	48 89 c2             	mov    rdx,rax
    1e92:	e8 49 f3 ff ff       	call   11e0 <_ZSt16__ostream_insertIcSt11char_traitsIcEERSt13basic_ostreamIT_T0_ES6_PKS3_l@plt>
    1e97:	48 83 c4 08          	add    rsp,0x8
    1e9b:	4c 89 e0             	mov    rax,r12
    1e9e:	5d                   	pop    rbp
    1e9f:	41 5c                	pop    r12
    1ea1:	c3                   	ret
    1ea2:	66 66 2e 0f 1f 84 00 	data16 cs nop WORD PTR [rax+rax*1+0x0]
    1ea9:	00 00 00 00 
    1ead:	0f 1f 00             	nop    DWORD PTR [rax]

0000000000001eb0 <_Z4initR6Stringm7Context>:
    1eb0:	f3 0f 1e fa          	endbr64
    1eb4:	55                   	push   rbp
    1eb5:	48 8d 56 01          	lea    rdx,[rsi+0x1]
    1eb9:	48 89 f5             	mov    rbp,rsi
    1ebc:	53                   	push   rbx
    1ebd:	48 89 fb             	mov    rbx,rdi
    1ec0:	48 83 ec 28          	sub    rsp,0x28
    1ec4:	64 48 8b 04 25 28 00 	mov    rax,QWORD PTR fs:0x28
    1ecb:	00 00 
    1ecd:	48 89 44 24 18       	mov    QWORD PTR [rsp+0x18],rax
    1ed2:	31 c0                	xor    eax,eax
    1ed4:	f3 0f 6f 44 24 48    	movdqu xmm0,XMMWORD PTR [rsp+0x48]
    1eda:	48 8b 74 24 40       	mov    rsi,QWORD PTR [rsp+0x40]
    1edf:	48 89 17             	mov    QWORD PTR [rdi],rdx
    1ee2:	48 89 77 10          	mov    QWORD PTR [rdi+0x10],rsi
    1ee6:	66 48 0f 7e c0       	movq   rax,xmm0
    1eeb:	0f 11 47 18          	movups XMMWORD PTR [rdi+0x18],xmm0
    1eef:	48 89 e7             	mov    rdi,rsp
    1ef2:	ff d0                	call   rax
    1ef4:	8b 05 62 32 00 00    	mov    eax,DWORD PTR [rip+0x3262]        # 515c <_ZN9CoreError7CorrectE>
    1efa:	39 04 24             	cmp    DWORD PTR [rsp],eax
    1efd:	74 11                	je     1f10 <_Z4initR6Stringm7Context+0x60>
    1eff:	48 8d 3d 40 11 00 00 	lea    rdi,[rip+0x1140]        # 3046 <_IO_stdin_used+0x46>
    1f06:	e8 35 f7 ff ff       	call   1640 <_Z5panicPKc>
    1f0b:	0f 1f 44 00 00       	nop    DWORD PTR [rax+rax*1+0x0]
    1f10:	48 8b 44 24 08       	mov    rax,QWORD PTR [rsp+0x8]
    1f15:	48 89 43 08          	mov    QWORD PTR [rbx+0x8],rax
    1f19:	c6 04 28 00          	mov    BYTE PTR [rax+rbp*1],0x0
    1f1d:	48 8b 44 24 18       	mov    rax,QWORD PTR [rsp+0x18]
    1f22:	64 48 2b 04 25 28 00 	sub    rax,QWORD PTR fs:0x28
    1f29:	00 00 
    1f2b:	75 07                	jne    1f34 <_Z4initR6Stringm7Context+0x84>
    1f2d:	48 83 c4 28          	add    rsp,0x28
    1f31:	5b                   	pop    rbx
    1f32:	5d                   	pop    rbp
    1f33:	c3                   	ret
    1f34:	e8 97 f2 ff ff       	call   11d0 <__stack_chk_fail@plt>
    1f39:	0f 1f 80 00 00 00 00 	nop    DWORD PTR [rax+0x0]

0000000000001f40 <_Z9init_from6StringPKc7Context>:
    1f40:	f3 0f 1e fa          	endbr64
    1f44:	41 54                	push   r12
    1f46:	55                   	push   rbp
    1f47:	48 89 fd             	mov    rbp,rdi
    1f4a:	53                   	push   rbx
    1f4b:	48 83 ec 20          	sub    rsp,0x20
    1f4f:	64 48 8b 04 25 28 00 	mov    rax,QWORD PTR fs:0x28
    1f56:	00 00 
    1f58:	48 89 44 24 18       	mov    QWORD PTR [rsp+0x18],rax
    1f5d:	31 c0                	xor    eax,eax
    1f5f:	e8 0c f2 ff ff       	call   1170 <strlen@plt>
    1f64:	48 8b 74 24 68       	mov    rsi,QWORD PTR [rsp+0x68]
    1f69:	48 89 e7             	mov    rdi,rsp
    1f6c:	49 89 c4             	mov    r12,rax
    1f6f:	48 8d 50 01          	lea    rdx,[rax+0x1]
    1f73:	ff 54 24 70          	call   QWORD PTR [rsp+0x70]
    1f77:	8b 05 df 31 00 00    	mov    eax,DWORD PTR [rip+0x31df]        # 515c <_ZN9CoreError7CorrectE>
    1f7d:	39 04 24             	cmp    DWORD PTR [rsp],eax
    1f80:	74 0e                	je     1f90 <_Z9init_from6StringPKc7Context+0x50>
    1f82:	48 8d 3d bd 10 00 00 	lea    rdi,[rip+0x10bd]        # 3046 <_IO_stdin_used+0x46>
    1f89:	e8 b2 f6 ff ff       	call   1640 <_Z5panicPKc>
    1f8e:	66 90                	xchg   ax,ax
    1f90:	48 8b 7c 24 08       	mov    rdi,QWORD PTR [rsp+0x8]
    1f95:	4c 89 e2             	mov    rdx,r12
    1f98:	48 89 ee             	mov    rsi,rbp
    1f9b:	4a 8d 1c 27          	lea    rbx,[rdi+r12*1]
    1f9f:	c6 03 00             	mov    BYTE PTR [rbx],0x0
    1fa2:	e8 e9 f1 ff ff       	call   1190 <memcpy@plt>
    1fa7:	c6 03 00             	mov    BYTE PTR [rbx],0x0
    1faa:	48 8b 44 24 18       	mov    rax,QWORD PTR [rsp+0x18]
    1faf:	64 48 2b 04 25 28 00 	sub    rax,QWORD PTR fs:0x28
    1fb6:	00 00 
    1fb8:	75 09                	jne    1fc3 <_Z9init_from6StringPKc7Context+0x83>
    1fba:	48 83 c4 20          	add    rsp,0x20
    1fbe:	5b                   	pop    rbx
    1fbf:	5d                   	pop    rbp
    1fc0:	41 5c                	pop    r12
    1fc2:	c3                   	ret
    1fc3:	e8 08 f2 ff ff       	call   11d0 <__stack_chk_fail@plt>
    1fc8:	0f 1f 84 00 00 00 00 	nop    DWORD PTR [rax+rax*1+0x0]
    1fcf:	00 

0000000000001fd0 <_Z7destroyR6String>:
    1fd0:	f3 0f 1e fa          	endbr64
    1fd4:	48 83 ec 28          	sub    rsp,0x28
    1fd8:	48 8b 4f 08          	mov    rcx,QWORD PTR [rdi+0x8]
    1fdc:	48 89 f8             	mov    rax,rdi
    1fdf:	64 48 8b 14 25 28 00 	mov    rdx,QWORD PTR fs:0x28
    1fe6:	00 00 
    1fe8:	48 89 54 24 18       	mov    QWORD PTR [rsp+0x18],rdx
    1fed:	48 8b 17             	mov    rdx,QWORD PTR [rdi]
    1ff0:	48 89 e6             	mov    rsi,rsp
    1ff3:	48 8b 7f 10          	mov    rdi,QWORD PTR [rdi+0x10]
    1ff7:	48 89 0c 24          	mov    QWORD PTR [rsp],rcx
    1ffb:	48 89 54 24 08       	mov    QWORD PTR [rsp+0x8],rdx
    2000:	ff 50 20             	call   QWORD PTR [rax+0x20]
    2003:	48 8b 44 24 18       	mov    rax,QWORD PTR [rsp+0x18]
    2008:	64 48 2b 04 25 28 00 	sub    rax,QWORD PTR fs:0x28
    200f:	00 00 
    2011:	75 05                	jne    2018 <_Z7destroyR6String+0x48>
    2013:	48 83 c4 28          	add    rsp,0x28
    2017:	c3                   	ret
    2018:	e8 b3 f1 ff ff       	call   11d0 <__stack_chk_fail@plt>
    201d:	0f 1f 00             	nop    DWORD PTR [rax]

0000000000002020 <_Z5cloneR6String7Context>:
    2020:	f3 0f 1e fa          	endbr64
    2024:	41 54                	push   r12
    2026:	49 89 fc             	mov    r12,rdi
    2029:	55                   	push   rbp
    202a:	53                   	push   rbx
    202b:	48 89 f3             	mov    rbx,rsi
    202e:	48 83 ec 30          	sub    rsp,0x30
    2032:	48 8b 16             	mov    rdx,QWORD PTR [rsi]
    2035:	f3 0f 6f 4c 24 58    	movdqu xmm1,XMMWORD PTR [rsp+0x58]
    203b:	48 8b 6c 24 50       	mov    rbp,QWORD PTR [rsp+0x50]
    2040:	48 8d 7c 24 10       	lea    rdi,[rsp+0x10]
    2045:	64 48 8b 04 25 28 00 	mov    rax,QWORD PTR fs:0x28
    204c:	00 00 
    204e:	48 89 44 24 28       	mov    QWORD PTR [rsp+0x28],rax
    2053:	31 c0                	xor    eax,eax
    2055:	48 89 ee             	mov    rsi,rbp
    2058:	66 48 0f 7e c8       	movq   rax,xmm1
    205d:	0f 29 0c 24          	movaps XMMWORD PTR [rsp],xmm1
    2061:	ff d0                	call   rax
    2063:	8b 05 f3 30 00 00    	mov    eax,DWORD PTR [rip+0x30f3]        # 515c <_ZN9CoreError7CorrectE>
    2069:	39 44 24 10          	cmp    DWORD PTR [rsp+0x10],eax
    206d:	74 11                	je     2080 <_Z5cloneR6String7Context+0x60>
    206f:	48 8d 3d d0 0f 00 00 	lea    rdi,[rip+0xfd0]        # 3046 <_IO_stdin_used+0x46>
    2076:	e8 c5 f5 ff ff       	call   1640 <_Z5panicPKc>
    207b:	0f 1f 44 00 00       	nop    DWORD PTR [rax+rax*1+0x0]
    2080:	48 8b 4c 24 18       	mov    rcx,QWORD PTR [rsp+0x18]
    2085:	48 8b 73 08          	mov    rsi,QWORD PTR [rbx+0x8]
    2089:	48 8b 13             	mov    rdx,QWORD PTR [rbx]
    208c:	48 89 cf             	mov    rdi,rcx
    208f:	e8 fc f0 ff ff       	call   1190 <memcpy@plt>
    2094:	66 0f 6f 1c 24       	movdqa xmm3,XMMWORD PTR [rsp]
    2099:	66 48 0f 6e d5       	movq   xmm2,rbp
    209e:	48 89 c1             	mov    rcx,rax
    20a1:	48 8b 03             	mov    rax,QWORD PTR [rbx]
    20a4:	66 48 0f 6e c1       	movq   xmm0,rcx
    20a9:	41 0f 11 5c 24 18    	movups XMMWORD PTR [r12+0x18],xmm3
    20af:	49 89 04 24          	mov    QWORD PTR [r12],rax
    20b3:	66 0f 6c c2          	punpcklqdq xmm0,xmm2
    20b7:	41 0f 11 44 24 08    	movups XMMWORD PTR [r12+0x8],xmm0
    20bd:	48 8b 44 24 28       	mov    rax,QWORD PTR [rsp+0x28]
    20c2:	64 48 2b 04 25 28 00 	sub    rax,QWORD PTR fs:0x28
    20c9:	00 00 
    20cb:	75 0c                	jne    20d9 <_Z5cloneR6String7Context+0xb9>
    20cd:	48 83 c4 30          	add    rsp,0x30
    20d1:	4c 89 e0             	mov    rax,r12
    20d4:	5b                   	pop    rbx
    20d5:	5d                   	pop    rbp
    20d6:	41 5c                	pop    r12
    20d8:	c3                   	ret
    20d9:	e8 f2 f0 ff ff       	call   11d0 <__stack_chk_fail@plt>
    20de:	66 90                	xchg   ax,ax

00000000000020e0 <_Z4sizeRK6String>:
    20e0:	f3 0f 1e fa          	endbr64
    20e4:	48 8b 07             	mov    rax,QWORD PTR [rdi]
    20e7:	48 83 e8 01          	sub    rax,0x1
    20eb:	c3                   	ret
    20ec:	0f 1f 40 00          	nop    DWORD PTR [rax+0x0]

00000000000020f0 <_Z9size_utf8RK6String>:
    20f0:	f3 0f 1e fa          	endbr64
    20f4:	48 8b 0f             	mov    rcx,QWORD PTR [rdi]
    20f7:	48 83 e9 01          	sub    rcx,0x1
    20fb:	0f 84 7f 00 00 00    	je     2180 <_Z9size_utf8RK6String+0x90>
    2101:	48 8b 7f 08          	mov    rdi,QWORD PTR [rdi+0x8]
    2105:	31 d2                	xor    edx,edx
    2107:	45 31 c0             	xor    r8d,r8d
    210a:	eb 34                	jmp    2140 <_Z9size_utf8RK6String+0x50>
    210c:	0f 1f 40 00          	nop    DWORD PTR [rax+0x0]
    2110:	89 c6                	mov    esi,eax
    2112:	40 c0 ee 05          	shr    sil,0x5
    2116:	40 80 fe 06          	cmp    sil,0x6
    211a:	74 44                	je     2160 <_Z9size_utf8RK6String+0x70>
    211c:	89 c6                	mov    esi,eax
    211e:	40 c0 ee 04          	shr    sil,0x4
    2122:	40 80 fe 0e          	cmp    sil,0xe
    2126:	74 48                	je     2170 <_Z9size_utf8RK6String+0x80>
    2128:	c0 e8 03             	shr    al,0x3
    212b:	3c 1e                	cmp    al,0x1e
    212d:	75 58                	jne    2187 <_Z9size_utf8RK6String+0x97>
    212f:	b8 04 00 00 00       	mov    eax,0x4
    2134:	48 01 c2             	add    rdx,rax
    2137:	49 83 c0 01          	add    r8,0x1
    213b:	48 39 ca             	cmp    rdx,rcx
    213e:	73 19                	jae    2159 <_Z9size_utf8RK6String+0x69>
    2140:	0f b6 04 17          	movzx  eax,BYTE PTR [rdi+rdx*1]
    2144:	84 c0                	test   al,al
    2146:	78 c8                	js     2110 <_Z9size_utf8RK6String+0x20>
    2148:	b8 01 00 00 00       	mov    eax,0x1
    214d:	49 83 c0 01          	add    r8,0x1
    2151:	48 01 c2             	add    rdx,rax
    2154:	48 39 ca             	cmp    rdx,rcx
    2157:	72 e7                	jb     2140 <_Z9size_utf8RK6String+0x50>
    2159:	4c 89 c0             	mov    rax,r8
    215c:	c3                   	ret
    215d:	0f 1f 00             	nop    DWORD PTR [rax]
    2160:	b8 02 00 00 00       	mov    eax,0x2
    2165:	eb cd                	jmp    2134 <_Z9size_utf8RK6String+0x44>
    2167:	66 0f 1f 84 00 00 00 	nop    WORD PTR [rax+rax*1+0x0]
    216e:	00 00 
    2170:	b8 03 00 00 00       	mov    eax,0x3
    2175:	eb bd                	jmp    2134 <_Z9size_utf8RK6String+0x44>
    2177:	66 0f 1f 84 00 00 00 	nop    WORD PTR [rax+rax*1+0x0]
    217e:	00 00 
    2180:	45 31 c0             	xor    r8d,r8d
    2183:	4c 89 c0             	mov    rax,r8
    2186:	c3                   	ret
    2187:	48 83 ec 08          	sub    rsp,0x8
    218b:	48 8d 3d a2 0e 00 00 	lea    rdi,[rip+0xea2]        # 3034 <_IO_stdin_used+0x34>
    2192:	e8 a9 f4 ff ff       	call   1640 <_Z5panicPKc>
    2197:	66 0f 1f 84 00 00 00 	nop    WORD PTR [rax+rax*1+0x0]
    219e:	00 00 

00000000000021a0 <_Z5c_strRK6String>:
    21a0:	f3 0f 1e fa          	endbr64
    21a4:	48 8b 47 08          	mov    rax,QWORD PTR [rdi+0x8]
    21a8:	c3                   	ret
    21a9:	0f 1f 80 00 00 00 00 	nop    DWORD PTR [rax+0x0]

00000000000021b0 <_ZlsRSoRK6String>:
    21b0:	f3 0f 1e fa          	endbr64
    21b4:	41 55                	push   r13
    21b6:	49 89 fd             	mov    r13,rdi
    21b9:	41 54                	push   r12
    21bb:	55                   	push   rbp
    21bc:	53                   	push   rbx
    21bd:	48 83 ec 18          	sub    rsp,0x18
    21c1:	64 48 8b 04 25 28 00 	mov    rax,QWORD PTR fs:0x28
    21c8:	00 00 
    21ca:	48 89 44 24 08       	mov    QWORD PTR [rsp+0x8],rax
    21cf:	31 c0                	xor    eax,eax
    21d1:	48 83 3e 01          	cmp    QWORD PTR [rsi],0x1
    21d5:	74 3e                	je     2215 <_ZlsRSoRK6String+0x65>
    21d7:	48 89 f5             	mov    rbp,rsi
    21da:	31 db                	xor    ebx,ebx
    21dc:	4c 8d 64 24 07       	lea    r12,[rsp+0x7]
    21e1:	0f 1f 80 00 00 00 00 	nop    DWORD PTR [rax+0x0]
    21e8:	48 8b 45 08          	mov    rax,QWORD PTR [rbp+0x8]
    21ec:	ba 01 00 00 00       	mov    edx,0x1
    21f1:	4c 89 e6             	mov    rsi,r12
    21f4:	4c 89 ef             	mov    rdi,r13
    21f7:	0f b6 04 18          	movzx  eax,BYTE PTR [rax+rbx*1]
    21fb:	48 83 c3 01          	add    rbx,0x1
    21ff:	88 44 24 07          	mov    BYTE PTR [rsp+0x7],al
    2203:	e8 d8 ef ff ff       	call   11e0 <_ZSt16__ostream_insertIcSt11char_traitsIcEERSt13basic_ostreamIT_T0_ES6_PKS3_l@plt>
    2208:	48 8b 45 00          	mov    rax,QWORD PTR [rbp+0x0]
    220c:	48 83 e8 01          	sub    rax,0x1
    2210:	48 39 c3             	cmp    rbx,rax
    2213:	72 d3                	jb     21e8 <_ZlsRSoRK6String+0x38>
    2215:	48 8b 44 24 08       	mov    rax,QWORD PTR [rsp+0x8]
    221a:	64 48 2b 04 25 28 00 	sub    rax,QWORD PTR fs:0x28
    2221:	00 00 
    2223:	75 0e                	jne    2233 <_ZlsRSoRK6String+0x83>
    2225:	48 83 c4 18          	add    rsp,0x18
    2229:	4c 89 e8             	mov    rax,r13
    222c:	5b                   	pop    rbx
    222d:	5d                   	pop    rbp
    222e:	41 5c                	pop    r12
    2230:	41 5d                	pop    r13
    2232:	c3                   	ret
    2233:	e8 98 ef ff ff       	call   11d0 <__stack_chk_fail@plt>
    2238:	0f 1f 84 00 00 00 00 	nop    DWORD PTR [rax+rax*1+0x0]
    223f:	00 

0000000000002240 <_Z13to_utf8_arrayR6String7Context>:
    2240:	f3 0f 1e fa          	endbr64
    2244:	41 54                	push   r12
    2246:	49 89 fc             	mov    r12,rdi
    2249:	53                   	push   rbx
    224a:	48 89 f3             	mov    rbx,rsi
    224d:	48 83 ec 28          	sub    rsp,0x28
    2251:	4c 8b 06             	mov    r8,QWORD PTR [rsi]
    2254:	64 48 8b 04 25 28 00 	mov    rax,QWORD PTR fs:0x28
    225b:	00 00 
    225d:	48 89 44 24 18       	mov    QWORD PTR [rsp+0x18],rax
    2262:	31 c0                	xor    eax,eax
    2264:	49 83 e8 01          	sub    r8,0x1
    2268:	0f 84 ca 01 00 00    	je     2438 <_Z13to_utf8_arrayR6String7Context+0x1f8>
    226e:	48 8b 7e 08          	mov    rdi,QWORD PTR [rsi+0x8]
    2272:	31 c9                	xor    ecx,ecx
    2274:	31 d2                	xor    edx,edx
    2276:	eb 44                	jmp    22bc <_Z13to_utf8_arrayR6String7Context+0x7c>
    2278:	0f 1f 84 00 00 00 00 	nop    DWORD PTR [rax+rax*1+0x0]
    227f:	00 
    2280:	89 c6                	mov    esi,eax
    2282:	40 c0 ee 05          	shr    sil,0x5
    2286:	40 80 fe 06          	cmp    sil,0x6
    228a:	0f 84 88 01 00 00    	je     2418 <_Z13to_utf8_arrayR6String7Context+0x1d8>
    2290:	89 c6                	mov    esi,eax
    2292:	40 c0 ee 04          	shr    sil,0x4
    2296:	40 80 fe 0e          	cmp    sil,0xe
    229a:	0f 84 88 01 00 00    	je     2428 <_Z13to_utf8_arrayR6String7Context+0x1e8>
    22a0:	c0 e8 03             	shr    al,0x3
    22a3:	3c 1e                	cmp    al,0x1e
    22a5:	0f 85 94 01 00 00    	jne    243f <_Z13to_utf8_arrayR6String7Context+0x1ff>
    22ab:	b8 04 00 00 00       	mov    eax,0x4
    22b0:	48 01 c2             	add    rdx,rax
    22b3:	48 83 c1 01          	add    rcx,0x1
    22b7:	4c 39 c2             	cmp    rdx,r8
    22ba:	73 19                	jae    22d5 <_Z13to_utf8_arrayR6String7Context+0x95>
    22bc:	0f b6 04 17          	movzx  eax,BYTE PTR [rdi+rdx*1]
    22c0:	84 c0                	test   al,al
    22c2:	78 bc                	js     2280 <_Z13to_utf8_arrayR6String7Context+0x40>
    22c4:	b8 01 00 00 00       	mov    eax,0x1
    22c9:	48 83 c1 01          	add    rcx,0x1
    22cd:	48 01 c2             	add    rdx,rax
    22d0:	4c 39 c2             	cmp    rdx,r8
    22d3:	72 e7                	jb     22bc <_Z13to_utf8_arrayR6String7Context+0x7c>
    22d5:	4c 8d 04 8d 00 00 00 	lea    r8,[rcx*4+0x0]
    22dc:	00 
    22dd:	f3 0f 6f 44 24 48    	movdqu xmm0,XMMWORD PTR [rsp+0x48]
    22e3:	49 89 0c 24          	mov    QWORD PTR [r12],rcx
    22e7:	48 89 e7             	mov    rdi,rsp
    22ea:	4c 89 c2             	mov    rdx,r8
    22ed:	48 8b 74 24 40       	mov    rsi,QWORD PTR [rsp+0x40]
    22f2:	66 48 0f 7e c0       	movq   rax,xmm0
    22f7:	41 0f 11 44 24 18    	movups XMMWORD PTR [r12+0x18],xmm0
    22fd:	49 89 74 24 10       	mov    QWORD PTR [r12+0x10],rsi
    2302:	ff d0                	call   rax
    2304:	8b 05 52 2e 00 00    	mov    eax,DWORD PTR [rip+0x2e52]        # 515c <_ZN9CoreError7CorrectE>
    230a:	39 04 24             	cmp    DWORD PTR [rsp],eax
    230d:	74 11                	je     2320 <_Z13to_utf8_arrayR6String7Context+0xe0>
    230f:	48 8d 3d 30 0d 00 00 	lea    rdi,[rip+0xd30]        # 3046 <_IO_stdin_used+0x46>
    2316:	e8 25 f3 ff ff       	call   1640 <_Z5panicPKc>
    231b:	0f 1f 44 00 00       	nop    DWORD PTR [rax+rax*1+0x0]
    2320:	48 8b 44 24 08       	mov    rax,QWORD PTR [rsp+0x8]
    2325:	31 c9                	xor    ecx,ecx
    2327:	48 83 3b 01          	cmp    QWORD PTR [rbx],0x1
    232b:	49 89 44 24 08       	mov    QWORD PTR [r12+0x8],rax
    2330:	75 72                	jne    23a4 <_Z13to_utf8_arrayR6String7Context+0x164>
    2332:	e9 91 00 00 00       	jmp    23c8 <_Z13to_utf8_arrayR6String7Context+0x188>
    2337:	66 0f 1f 84 00 00 00 	nop    WORD PTR [rax+rax*1+0x0]
    233e:	00 00 
    2340:	89 d7                	mov    edi,edx
    2342:	40 c0 ef 05          	shr    dil,0x5
    2346:	40 80 ff 06          	cmp    dil,0x6
    234a:	0f 84 b0 00 00 00    	je     2400 <_Z13to_utf8_arrayR6String7Context+0x1c0>
    2350:	89 d7                	mov    edi,edx
    2352:	40 c0 ef 04          	shr    dil,0x4
    2356:	40 80 ff 0e          	cmp    dil,0xe
    235a:	0f 84 88 00 00 00    	je     23e8 <_Z13to_utf8_arrayR6String7Context+0x1a8>
    2360:	89 d7                	mov    edi,edx
    2362:	40 c0 ef 03          	shr    dil,0x3
    2366:	40 80 ff 1e          	cmp    dil,0x1e
    236a:	0f 85 cf 00 00 00    	jne    243f <_Z13to_utf8_arrayR6String7Context+0x1ff>
    2370:	44 0f b6 4e 01       	movzx  r9d,BYTE PTR [rsi+0x1]
    2375:	44 0f b6 46 02       	movzx  r8d,BYTE PTR [rsi+0x2]
    237a:	bf 04 00 00 00       	mov    edi,0x4
    237f:	0f b6 76 03          	movzx  esi,BYTE PTR [rsi+0x3]
    2383:	88 10                	mov    BYTE PTR [rax],dl
    2385:	48 01 f9             	add    rcx,rdi
    2388:	48 83 c0 04          	add    rax,0x4
    238c:	44 88 48 fd          	mov    BYTE PTR [rax-0x3],r9b
    2390:	44 88 40 fe          	mov    BYTE PTR [rax-0x2],r8b
    2394:	40 88 70 ff          	mov    BYTE PTR [rax-0x1],sil
    2398:	48 8b 3b             	mov    rdi,QWORD PTR [rbx]
    239b:	48 8d 57 ff          	lea    rdx,[rdi-0x1]
    239f:	48 39 d1             	cmp    rcx,rdx
    23a2:	73 24                	jae    23c8 <_Z13to_utf8_arrayR6String7Context+0x188>
    23a4:	48 8b 73 08          	mov    rsi,QWORD PTR [rbx+0x8]
    23a8:	48 01 ce             	add    rsi,rcx
    23ab:	0f b6 16             	movzx  edx,BYTE PTR [rsi]
    23ae:	84 d2                	test   dl,dl
    23b0:	78 8e                	js     2340 <_Z13to_utf8_arrayR6String7Context+0x100>
    23b2:	bf 01 00 00 00       	mov    edi,0x1
    23b7:	31 f6                	xor    esi,esi
    23b9:	45 31 c0             	xor    r8d,r8d
    23bc:	45 31 c9             	xor    r9d,r9d
    23bf:	eb c2                	jmp    2383 <_Z13to_utf8_arrayR6String7Context+0x143>
    23c1:	0f 1f 80 00 00 00 00 	nop    DWORD PTR [rax+0x0]
    23c8:	48 8b 44 24 18       	mov    rax,QWORD PTR [rsp+0x18]
    23cd:	64 48 2b 04 25 28 00 	sub    rax,QWORD PTR fs:0x28
    23d4:	00 00 
    23d6:	75 73                	jne    244b <_Z13to_utf8_arrayR6String7Context+0x20b>
    23d8:	48 83 c4 28          	add    rsp,0x28
    23dc:	4c 89 e0             	mov    rax,r12
    23df:	5b                   	pop    rbx
    23e0:	41 5c                	pop    r12
    23e2:	c3                   	ret
    23e3:	0f 1f 44 00 00       	nop    DWORD PTR [rax+rax*1+0x0]
    23e8:	44 0f b6 4e 01       	movzx  r9d,BYTE PTR [rsi+0x1]
    23ed:	44 0f b6 46 02       	movzx  r8d,BYTE PTR [rsi+0x2]
    23f2:	bf 03 00 00 00       	mov    edi,0x3
    23f7:	31 f6                	xor    esi,esi
    23f9:	eb 88                	jmp    2383 <_Z13to_utf8_arrayR6String7Context+0x143>
    23fb:	0f 1f 44 00 00       	nop    DWORD PTR [rax+rax*1+0x0]
    2400:	44 0f b6 4e 01       	movzx  r9d,BYTE PTR [rsi+0x1]
    2405:	bf 02 00 00 00       	mov    edi,0x2
    240a:	31 f6                	xor    esi,esi
    240c:	45 31 c0             	xor    r8d,r8d
    240f:	e9 6f ff ff ff       	jmp    2383 <_Z13to_utf8_arrayR6String7Context+0x143>
    2414:	0f 1f 40 00          	nop    DWORD PTR [rax+0x0]
    2418:	b8 02 00 00 00       	mov    eax,0x2
    241d:	e9 8e fe ff ff       	jmp    22b0 <_Z13to_utf8_arrayR6String7Context+0x70>
    2422:	66 0f 1f 44 00 00    	nop    WORD PTR [rax+rax*1+0x0]
    2428:	b8 03 00 00 00       	mov    eax,0x3
    242d:	e9 7e fe ff ff       	jmp    22b0 <_Z13to_utf8_arrayR6String7Context+0x70>
    2432:	66 0f 1f 44 00 00    	nop    WORD PTR [rax+rax*1+0x0]
    2438:	31 c9                	xor    ecx,ecx
    243a:	e9 9e fe ff ff       	jmp    22dd <_Z13to_utf8_arrayR6String7Context+0x9d>
    243f:	48 8d 3d ee 0b 00 00 	lea    rdi,[rip+0xbee]        # 3034 <_IO_stdin_used+0x34>
    2446:	e8 f5 f1 ff ff       	call   1640 <_Z5panicPKc>
    244b:	e8 80 ed ff ff       	call   11d0 <__stack_chk_fail@plt>

0000000000002450 <_Z13to_utf8_arrayR6String>:
    2450:	f3 0f 1e fa          	endbr64
    2454:	41 54                	push   r12
    2456:	66 0f ef c0          	pxor   xmm0,xmm0
    245a:	49 89 fc             	mov    r12,rdi
    245d:	48 83 ec 40          	sub    rsp,0x40
    2461:	f3 0f 6f 4e 10       	movdqu xmm1,XMMWORD PTR [rsi+0x10]
    2466:	64 48 8b 04 25 28 00 	mov    rax,QWORD PTR fs:0x28
    246d:	00 00 
    246f:	48 89 44 24 38       	mov    QWORD PTR [rsp+0x38],rax
    2474:	31 c0                	xor    eax,eax
    2476:	48 8b 46 20          	mov    rax,QWORD PTR [rsi+0x20]
    247a:	0f 11 44 24 18       	movups XMMWORD PTR [rsp+0x18],xmm0
    247f:	48 c7 44 24 28 00 00 	mov    QWORD PTR [rsp+0x28],0x0
    2486:	00 00 
    2488:	48 89 44 24 10       	mov    QWORD PTR [rsp+0x10],rax
    248d:	ff 74 24 28          	push   QWORD PTR [rsp+0x28]
    2491:	ff 74 24 28          	push   QWORD PTR [rsp+0x28]
    2495:	ff 74 24 28          	push   QWORD PTR [rsp+0x28]
    2499:	ff 74 24 28          	push   QWORD PTR [rsp+0x28]
    249d:	48 83 ec 10          	sub    rsp,0x10
    24a1:	0f 11 0c 24          	movups XMMWORD PTR [rsp],xmm1
    24a5:	e8 96 fd ff ff       	call   2240 <_Z13to_utf8_arrayR6String7Context>
    24aa:	48 83 c4 30          	add    rsp,0x30
    24ae:	48 8b 44 24 38       	mov    rax,QWORD PTR [rsp+0x38]
    24b3:	64 48 2b 04 25 28 00 	sub    rax,QWORD PTR fs:0x28
    24ba:	00 00 
    24bc:	75 0a                	jne    24c8 <_Z13to_utf8_arrayR6String+0x78>
    24be:	48 83 c4 40          	add    rsp,0x40
    24c2:	4c 89 e0             	mov    rax,r12
    24c5:	41 5c                	pop    r12
    24c7:	c3                   	ret
    24c8:	e8 03 ed ff ff       	call   11d0 <__stack_chk_fail@plt>
    24cd:	0f 1f 00             	nop    DWORD PTR [rax]

00000000000024d0 <_Z4iterR6String>:
    24d0:	f3 0f 1e fa          	endbr64
    24d4:	48 89 f8             	mov    rax,rdi
    24d7:	31 d2                	xor    edx,edx
    24d9:	c3                   	ret
    24da:	66 0f 1f 44 00 00    	nop    WORD PTR [rax+rax*1+0x0]

00000000000024e0 <_Z4initR13StringBuilder7Context>:
    24e0:	f3 0f 1e fa          	endbr64
    24e4:	53                   	push   rbx
    24e5:	ba 01 00 00 00       	mov    edx,0x1
    24ea:	48 89 fb             	mov    rbx,rdi
    24ed:	48 83 ec 20          	sub    rsp,0x20
    24f1:	66 0f 6f 05 57 0b 00 	movdqa xmm0,XMMWORD PTR [rip+0xb57]        # 3050 <_IO_stdin_used+0x50>
    24f8:	00 
    24f9:	64 48 8b 04 25 28 00 	mov    rax,QWORD PTR fs:0x28
    2500:	00 00 
    2502:	48 89 44 24 18       	mov    QWORD PTR [rsp+0x18],rax
    2507:	31 c0                	xor    eax,eax
    2509:	f3 0f 6f 4c 24 38    	movdqu xmm1,XMMWORD PTR [rsp+0x38]
    250f:	48 8b 74 24 30       	mov    rsi,QWORD PTR [rsp+0x30]
    2514:	0f 11 47 08          	movups XMMWORD PTR [rdi+0x8],xmm0
    2518:	48 89 77 18          	mov    QWORD PTR [rdi+0x18],rsi
    251c:	66 48 0f 7e c8       	movq   rax,xmm1
    2521:	0f 11 4f 20          	movups XMMWORD PTR [rdi+0x20],xmm1
    2525:	48 89 e7             	mov    rdi,rsp
    2528:	ff d0                	call   rax
    252a:	8b 05 2c 2c 00 00    	mov    eax,DWORD PTR [rip+0x2c2c]        # 515c <_ZN9CoreError7CorrectE>
    2530:	39 04 24             	cmp    DWORD PTR [rsp],eax
    2533:	74 13                	je     2548 <_Z4initR13StringBuilder7Context+0x68>
    2535:	48 8d 3d 0a 0b 00 00 	lea    rdi,[rip+0xb0a]        # 3046 <_IO_stdin_used+0x46>
    253c:	e8 ff f0 ff ff       	call   1640 <_Z5panicPKc>
    2541:	0f 1f 80 00 00 00 00 	nop    DWORD PTR [rax+0x0]
    2548:	48 8b 44 24 08       	mov    rax,QWORD PTR [rsp+0x8]
    254d:	48 89 03             	mov    QWORD PTR [rbx],rax
    2550:	48 8b 44 24 18       	mov    rax,QWORD PTR [rsp+0x18]
    2555:	64 48 2b 04 25 28 00 	sub    rax,QWORD PTR fs:0x28
    255c:	00 00 
    255e:	75 06                	jne    2566 <_Z4initR13StringBuilder7Context+0x86>
    2560:	48 83 c4 20          	add    rsp,0x20
    2564:	5b                   	pop    rbx
    2565:	c3                   	ret
    2566:	e8 65 ec ff ff       	call   11d0 <__stack_chk_fail@plt>
    256b:	0f 1f 44 00 00       	nop    DWORD PTR [rax+rax*1+0x0]

0000000000002570 <_Z7destroyR13StringBuilder>:
    2570:	f3 0f 1e fa          	endbr64
    2574:	48 83 ec 28          	sub    rsp,0x28
    2578:	48 8b 0f             	mov    rcx,QWORD PTR [rdi]
    257b:	48 89 f8             	mov    rax,rdi
    257e:	64 48 8b 14 25 28 00 	mov    rdx,QWORD PTR fs:0x28
    2585:	00 00 
    2587:	48 89 54 24 18       	mov    QWORD PTR [rsp+0x18],rdx
    258c:	48 8b 57 10          	mov    rdx,QWORD PTR [rdi+0x10]
    2590:	48 89 e6             	mov    rsi,rsp
    2593:	48 8b 7f 18          	mov    rdi,QWORD PTR [rdi+0x18]
    2597:	48 89 0c 24          	mov    QWORD PTR [rsp],rcx
    259b:	48 89 54 24 08       	mov    QWORD PTR [rsp+0x8],rdx
    25a0:	ff 50 28             	call   QWORD PTR [rax+0x28]
    25a3:	48 8b 44 24 18       	mov    rax,QWORD PTR [rsp+0x18]
    25a8:	64 48 2b 04 25 28 00 	sub    rax,QWORD PTR fs:0x28
    25af:	00 00 
    25b1:	75 05                	jne    25b8 <_Z7destroyR13StringBuilder+0x48>
    25b3:	48 83 c4 28          	add    rsp,0x28
    25b7:	c3                   	ret
    25b8:	e8 13 ec ff ff       	call   11d0 <__stack_chk_fail@plt>
    25bd:	0f 1f 00             	nop    DWORD PTR [rax]

00000000000025c0 <_Z7reserveR13StringBuilderm>:
    25c0:	f3 0f 1e fa          	endbr64
    25c4:	41 55                	push   r13
    25c6:	41 54                	push   r12
    25c8:	55                   	push   rbp
    25c9:	53                   	push   rbx
    25ca:	48 83 ec 28          	sub    rsp,0x28
    25ce:	64 48 8b 04 25 28 00 	mov    rax,QWORD PTR fs:0x28
    25d5:	00 00 
    25d7:	48 89 44 24 18       	mov    QWORD PTR [rsp+0x18],rax
    25dc:	31 c0                	xor    eax,eax
    25de:	48 3b 77 10          	cmp    rsi,QWORD PTR [rdi+0x10]
    25e2:	76 69                	jbe    264d <_Z7reserveR13StringBuilderm+0x8d>
    25e4:	48 89 fb             	mov    rbx,rdi
    25e7:	48 89 f5             	mov    rbp,rsi
    25ea:	49 89 e4             	mov    r12,rsp
    25ed:	48 8b 77 18          	mov    rsi,QWORD PTR [rdi+0x18]
    25f1:	48 89 ea             	mov    rdx,rbp
    25f4:	4c 89 e7             	mov    rdi,r12
    25f7:	ff 53 20             	call   QWORD PTR [rbx+0x20]
    25fa:	8b 05 5c 2b 00 00    	mov    eax,DWORD PTR [rip+0x2b5c]        # 515c <_ZN9CoreError7CorrectE>
    2600:	39 04 24             	cmp    DWORD PTR [rsp],eax
    2603:	74 13                	je     2618 <_Z7reserveR13StringBuilderm+0x58>
    2605:	48 8d 3d 1b 0a 00 00 	lea    rdi,[rip+0xa1b]        # 3027 <_IO_stdin_used+0x27>
    260c:	e8 2f f0 ff ff       	call   1640 <_Z5panicPKc>
    2611:	0f 1f 80 00 00 00 00 	nop    DWORD PTR [rax+0x0]
    2618:	4c 8b 6c 24 08       	mov    r13,QWORD PTR [rsp+0x8]
    261d:	48 8b 33             	mov    rsi,QWORD PTR [rbx]
    2620:	48 8b 53 08          	mov    rdx,QWORD PTR [rbx+0x8]
    2624:	4c 89 ef             	mov    rdi,r13
    2627:	e8 64 eb ff ff       	call   1190 <memcpy@plt>
    262c:	48 8b 43 10          	mov    rax,QWORD PTR [rbx+0x10]
    2630:	48 8b 13             	mov    rdx,QWORD PTR [rbx]
    2633:	4c 89 e6             	mov    rsi,r12
    2636:	48 8b 7b 18          	mov    rdi,QWORD PTR [rbx+0x18]
    263a:	48 89 14 24          	mov    QWORD PTR [rsp],rdx
    263e:	48 89 44 24 08       	mov    QWORD PTR [rsp+0x8],rax
    2643:	ff 53 28             	call   QWORD PTR [rbx+0x28]
    2646:	4c 89 2b             	mov    QWORD PTR [rbx],r13
    2649:	48 89 6b 10          	mov    QWORD PTR [rbx+0x10],rbp
    264d:	48 8b 44 24 18       	mov    rax,QWORD PTR [rsp+0x18]
    2652:	64 48 2b 04 25 28 00 	sub    rax,QWORD PTR fs:0x28
    2659:	00 00 
    265b:	75 0b                	jne    2668 <_Z7reserveR13StringBuilderm+0xa8>
    265d:	48 83 c4 28          	add    rsp,0x28
    2661:	5b                   	pop    rbx
    2662:	5d                   	pop    rbp
    2663:	41 5c                	pop    r12
    2665:	41 5d                	pop    r13
    2667:	c3                   	ret
    2668:	e8 63 eb ff ff       	call   11d0 <__stack_chk_fail@plt>
    266d:	0f 1f 00             	nop    DWORD PTR [rax]

0000000000002670 <_Z3addR13StringBuilderc>:
    2670:	f3 0f 1e fa          	endbr64
    2674:	55                   	push   rbp
    2675:	89 f5                	mov    ebp,esi
    2677:	53                   	push   rbx
    2678:	48 89 fb             	mov    rbx,rdi
    267b:	48 83 ec 08          	sub    rsp,0x8
    267f:	48 8b 47 08          	mov    rax,QWORD PTR [rdi+0x8]
    2683:	48 3b 47 10          	cmp    rax,QWORD PTR [rdi+0x10]
    2687:	74 17                	je     26a0 <_Z3addR13StringBuilderc+0x30>
    2689:	48 8b 13             	mov    rdx,QWORD PTR [rbx]
    268c:	40 88 2c 02          	mov    BYTE PTR [rdx+rax*1],bpl
    2690:	48 83 43 08 01       	add    QWORD PTR [rbx+0x8],0x1
    2695:	48 83 c4 08          	add    rsp,0x8
    2699:	5b                   	pop    rbx
    269a:	5d                   	pop    rbp
    269b:	c3                   	ret
    269c:	0f 1f 40 00          	nop    DWORD PTR [rax+0x0]
    26a0:	48 8d 34 00          	lea    rsi,[rax+rax*1]
    26a4:	48 39 f0             	cmp    rax,rsi
    26a7:	73 e0                	jae    2689 <_Z3addR13StringBuilderc+0x19>
    26a9:	e8 e2 ef ff ff       	call   1690 <_Z7reserveIcEvR4ListIT_Em.part.0>
    26ae:	48 8b 43 08          	mov    rax,QWORD PTR [rbx+0x8]
    26b2:	eb d5                	jmp    2689 <_Z3addR13StringBuilderc+0x19>
    26b4:	66 66 2e 0f 1f 84 00 	data16 cs nop WORD PTR [rax+rax*1+0x0]
    26bb:	00 00 00 00 
    26bf:	90                   	nop

00000000000026c0 <_Z3addR13StringBuilder8UTF8Char>:
    26c0:	f3 0f 1e fa          	endbr64
    26c4:	41 55                	push   r13
    26c6:	41 54                	push   r12
    26c8:	55                   	push   rbp
    26c9:	89 f5                	mov    ebp,esi
    26cb:	53                   	push   rbx
    26cc:	48 89 fb             	mov    rbx,rdi
    26cf:	48 83 ec 08          	sub    rsp,0x8
    26d3:	40 84 f6             	test   sil,sil
    26d6:	0f 89 f4 00 00 00    	jns    27d0 <_Z3addR13StringBuilder8UTF8Char+0x110>
    26dc:	89 f0                	mov    eax,esi
    26de:	c0 e8 05             	shr    al,0x5
    26e1:	3c 06                	cmp    al,0x6
    26e3:	0f 84 87 01 00 00    	je     2870 <_Z3addR13StringBuilder8UTF8Char+0x1b0>
    26e9:	89 f0                	mov    eax,esi
    26eb:	c0 e8 04             	shr    al,0x4
    26ee:	3c 0e                	cmp    al,0xe
    26f0:	0f 84 2a 01 00 00    	je     2820 <_Z3addR13StringBuilder8UTF8Char+0x160>
    26f6:	89 f0                	mov    eax,esi
    26f8:	c0 e8 03             	shr    al,0x3
    26fb:	3c 1e                	cmp    al,0x1e
    26fd:	0f 85 78 01 00 00    	jne    287b <_Z3addR13StringBuilder8UTF8Char+0x1bb>
    2703:	41 bc 04 00 00 00    	mov    r12d,0x4
    2709:	48 8b 43 08          	mov    rax,QWORD PTR [rbx+0x8]
    270d:	48 8b 53 10          	mov    rdx,QWORD PTR [rbx+0x10]
    2711:	4a 8d 34 20          	lea    rsi,[rax+r12*1]
    2715:	48 39 d6             	cmp    rsi,rdx
    2718:	76 10                	jbe    272a <_Z3addR13StringBuilder8UTF8Char+0x6a>
    271a:	48 89 df             	mov    rdi,rbx
    271d:	e8 6e ef ff ff       	call   1690 <_Z7reserveIcEvR4ListIT_Em.part.0>
    2722:	48 8b 43 08          	mov    rax,QWORD PTR [rbx+0x8]
    2726:	48 8b 53 10          	mov    rdx,QWORD PTR [rbx+0x10]
    272a:	48 39 d0             	cmp    rax,rdx
    272d:	0f 84 ad 00 00 00    	je     27e0 <_Z3addR13StringBuilder8UTF8Char+0x120>
    2733:	48 8b 13             	mov    rdx,QWORD PTR [rbx]
    2736:	40 88 2c 02          	mov    BYTE PTR [rdx+rax*1],bpl
    273a:	48 8b 43 08          	mov    rax,QWORD PTR [rbx+0x8]
    273e:	48 83 c0 01          	add    rax,0x1
    2742:	48 89 43 08          	mov    QWORD PTR [rbx+0x8],rax
    2746:	49 83 fc 01          	cmp    r12,0x1
    274a:	74 72                	je     27be <_Z3addR13StringBuilder8UTF8Char+0xfe>
    274c:	89 e9                	mov    ecx,ebp
    274e:	0f be cd             	movsx  ecx,ch
    2751:	41 89 cd             	mov    r13d,ecx
    2754:	48 3b 43 10          	cmp    rax,QWORD PTR [rbx+0x10]
    2758:	0f 84 a2 00 00 00    	je     2800 <_Z3addR13StringBuilder8UTF8Char+0x140>
    275e:	48 8b 13             	mov    rdx,QWORD PTR [rbx]
    2761:	44 88 2c 02          	mov    BYTE PTR [rdx+rax*1],r13b
    2765:	48 8b 43 08          	mov    rax,QWORD PTR [rbx+0x8]
    2769:	48 83 c0 01          	add    rax,0x1
    276d:	48 89 43 08          	mov    QWORD PTR [rbx+0x8],rax
    2771:	49 83 fc 02          	cmp    r12,0x2
    2775:	74 47                	je     27be <_Z3addR13StringBuilder8UTF8Char+0xfe>
    2777:	41 89 ed             	mov    r13d,ebp
    277a:	41 c1 e5 08          	shl    r13d,0x8
    277e:	41 c1 fd 18          	sar    r13d,0x18
    2782:	48 3b 43 10          	cmp    rax,QWORD PTR [rbx+0x10]
    2786:	0f 84 a4 00 00 00    	je     2830 <_Z3addR13StringBuilder8UTF8Char+0x170>
    278c:	48 8b 13             	mov    rdx,QWORD PTR [rbx]
    278f:	44 88 2c 02          	mov    BYTE PTR [rdx+rax*1],r13b
    2793:	48 8b 43 08          	mov    rax,QWORD PTR [rbx+0x8]
    2797:	48 83 c0 01          	add    rax,0x1
    279b:	48 89 43 08          	mov    QWORD PTR [rbx+0x8],rax
    279f:	49 83 fc 04          	cmp    r12,0x4
    27a3:	75 19                	jne    27be <_Z3addR13StringBuilder8UTF8Char+0xfe>
    27a5:	c1 fd 18             	sar    ebp,0x18
    27a8:	48 3b 43 10          	cmp    rax,QWORD PTR [rbx+0x10]
    27ac:	0f 84 9e 00 00 00    	je     2850 <_Z3addR13StringBuilder8UTF8Char+0x190>
    27b2:	48 8b 13             	mov    rdx,QWORD PTR [rbx]
    27b5:	40 88 2c 02          	mov    BYTE PTR [rdx+rax*1],bpl
    27b9:	48 83 43 08 01       	add    QWORD PTR [rbx+0x8],0x1
    27be:	48 83 c4 08          	add    rsp,0x8
    27c2:	5b                   	pop    rbx
    27c3:	5d                   	pop    rbp
    27c4:	41 5c                	pop    r12
    27c6:	41 5d                	pop    r13
    27c8:	c3                   	ret
    27c9:	0f 1f 80 00 00 00 00 	nop    DWORD PTR [rax+0x0]
    27d0:	41 bc 01 00 00 00    	mov    r12d,0x1
    27d6:	e9 2e ff ff ff       	jmp    2709 <_Z3addR13StringBuilder8UTF8Char+0x49>
    27db:	0f 1f 44 00 00       	nop    DWORD PTR [rax+rax*1+0x0]
    27e0:	48 8d 34 00          	lea    rsi,[rax+rax*1]
    27e4:	48 39 c6             	cmp    rsi,rax
    27e7:	0f 86 46 ff ff ff    	jbe    2733 <_Z3addR13StringBuilder8UTF8Char+0x73>
    27ed:	48 89 df             	mov    rdi,rbx
    27f0:	e8 9b ee ff ff       	call   1690 <_Z7reserveIcEvR4ListIT_Em.part.0>
    27f5:	48 8b 43 08          	mov    rax,QWORD PTR [rbx+0x8]
    27f9:	e9 35 ff ff ff       	jmp    2733 <_Z3addR13StringBuilder8UTF8Char+0x73>
    27fe:	66 90                	xchg   ax,ax
    2800:	48 8d 34 00          	lea    rsi,[rax+rax*1]
    2804:	48 39 f0             	cmp    rax,rsi
    2807:	0f 83 51 ff ff ff    	jae    275e <_Z3addR13StringBuilder8UTF8Char+0x9e>
    280d:	48 89 df             	mov    rdi,rbx
    2810:	e8 7b ee ff ff       	call   1690 <_Z7reserveIcEvR4ListIT_Em.part.0>
    2815:	48 8b 43 08          	mov    rax,QWORD PTR [rbx+0x8]
    2819:	e9 40 ff ff ff       	jmp    275e <_Z3addR13StringBuilder8UTF8Char+0x9e>
    281e:	66 90                	xchg   ax,ax
    2820:	41 bc 03 00 00 00    	mov    r12d,0x3
    2826:	e9 de fe ff ff       	jmp    2709 <_Z3addR13StringBuilder8UTF8Char+0x49>
    282b:	0f 1f 44 00 00       	nop    DWORD PTR [rax+rax*1+0x0]
    2830:	48 8d 34 00          	lea    rsi,[rax+rax*1]
    2834:	48 39 f0             	cmp    rax,rsi
    2837:	0f 83 4f ff ff ff    	jae    278c <_Z3addR13StringBuilder8UTF8Char+0xcc>
    283d:	48 89 df             	mov    rdi,rbx
    2840:	e8 4b ee ff ff       	call   1690 <_Z7reserveIcEvR4ListIT_Em.part.0>
    2845:	48 8b 43 08          	mov    rax,QWORD PTR [rbx+0x8]
    2849:	e9 3e ff ff ff       	jmp    278c <_Z3addR13StringBuilder8UTF8Char+0xcc>
    284e:	66 90                	xchg   ax,ax
    2850:	48 8d 34 00          	lea    rsi,[rax+rax*1]
    2854:	48 39 c6             	cmp    rsi,rax
    2857:	0f 86 55 ff ff ff    	jbe    27b2 <_Z3addR13StringBuilder8UTF8Char+0xf2>
    285d:	48 89 df             	mov    rdi,rbx
    2860:	e8 2b ee ff ff       	call   1690 <_Z7reserveIcEvR4ListIT_Em.part.0>
    2865:	48 8b 43 08          	mov    rax,QWORD PTR [rbx+0x8]
    2869:	e9 44 ff ff ff       	jmp    27b2 <_Z3addR13StringBuilder8UTF8Char+0xf2>
    286e:	66 90                	xchg   ax,ax
    2870:	41 bc 02 00 00 00    	mov    r12d,0x2
    2876:	e9 8e fe ff ff       	jmp    2709 <_Z3addR13StringBuilder8UTF8Char+0x49>
    287b:	48 8d 3d b2 07 00 00 	lea    rdi,[rip+0x7b2]        # 3034 <_IO_stdin_used+0x34>
    2882:	e8 b9 ed ff ff       	call   1640 <_Z5panicPKc>
    2887:	66 0f 1f 84 00 00 00 	nop    WORD PTR [rax+rax*1+0x0]
    288e:	00 00 

0000000000002890 <_Z3addR13StringBuilderPKc>:
    2890:	f3 0f 1e fa          	endbr64
    2894:	41 55                	push   r13
    2896:	41 54                	push   r12
    2898:	55                   	push   rbp
    2899:	48 89 f5             	mov    rbp,rsi
    289c:	53                   	push   rbx
    289d:	48 89 fb             	mov    rbx,rdi
    28a0:	48 89 f7             	mov    rdi,rsi
    28a3:	48 83 ec 08          	sub    rsp,0x8
    28a7:	e8 c4 e8 ff ff       	call   1170 <strlen@plt>
    28ac:	48 8b 73 08          	mov    rsi,QWORD PTR [rbx+0x8]
    28b0:	49 89 c5             	mov    r13,rax
    28b3:	48 01 c6             	add    rsi,rax
    28b6:	48 3b 73 10          	cmp    rsi,QWORD PTR [rbx+0x10]
    28ba:	76 08                	jbe    28c4 <_Z3addR13StringBuilderPKc+0x34>
    28bc:	48 89 df             	mov    rdi,rbx
    28bf:	e8 cc ed ff ff       	call   1690 <_Z7reserveIcEvR4ListIT_Em.part.0>
    28c4:	4d 85 ed             	test   r13,r13
    28c7:	74 57                	je     2920 <_Z3addR13StringBuilderPKc+0x90>
    28c9:	48 8b 53 08          	mov    rdx,QWORD PTR [rbx+0x8]
    28cd:	49 01 ed             	add    r13,rbp
    28d0:	eb 22                	jmp    28f4 <_Z3addR13StringBuilderPKc+0x64>
    28d2:	66 0f 1f 44 00 00    	nop    WORD PTR [rax+rax*1+0x0]
    28d8:	48 8b 0b             	mov    rcx,QWORD PTR [rbx]
    28db:	48 83 c5 01          	add    rbp,0x1
    28df:	44 88 24 11          	mov    BYTE PTR [rcx+rdx*1],r12b
    28e3:	48 8b 43 08          	mov    rax,QWORD PTR [rbx+0x8]
    28e7:	48 8d 50 01          	lea    rdx,[rax+0x1]
    28eb:	48 89 53 08          	mov    QWORD PTR [rbx+0x8],rdx
    28ef:	49 39 ed             	cmp    r13,rbp
    28f2:	74 2c                	je     2920 <_Z3addR13StringBuilderPKc+0x90>
    28f4:	44 0f b6 65 00       	movzx  r12d,BYTE PTR [rbp+0x0]
    28f9:	48 39 53 10          	cmp    QWORD PTR [rbx+0x10],rdx
    28fd:	75 d9                	jne    28d8 <_Z3addR13StringBuilderPKc+0x48>
    28ff:	48 8d 34 12          	lea    rsi,[rdx+rdx*1]
    2903:	48 39 d6             	cmp    rsi,rdx
    2906:	76 d0                	jbe    28d8 <_Z3addR13StringBuilderPKc+0x48>
    2908:	48 89 df             	mov    rdi,rbx
    290b:	e8 80 ed ff ff       	call   1690 <_Z7reserveIcEvR4ListIT_Em.part.0>
    2910:	48 8b 53 08          	mov    rdx,QWORD PTR [rbx+0x8]
    2914:	eb c2                	jmp    28d8 <_Z3addR13StringBuilderPKc+0x48>
    2916:	66 2e 0f 1f 84 00 00 	cs nop WORD PTR [rax+rax*1+0x0]
    291d:	00 00 00 
    2920:	48 83 c4 08          	add    rsp,0x8
    2924:	5b                   	pop    rbx
    2925:	5d                   	pop    rbp
    2926:	41 5c                	pop    r12
    2928:	41 5d                	pop    r13
    292a:	c3                   	ret
    292b:	0f 1f 44 00 00       	nop    DWORD PTR [rax+rax*1+0x0]

0000000000002930 <_Z3addR13StringBuilderNSt7__cxx1112basic_stringIcSt11char_traitsIcESaIcEEE>:
    2930:	f3 0f 1e fa          	endbr64
    2934:	41 56                	push   r14
    2936:	41 55                	push   r13
    2938:	49 89 f5             	mov    r13,rsi
    293b:	41 54                	push   r12
    293d:	55                   	push   rbp
    293e:	53                   	push   rbx
    293f:	4c 8b 76 08          	mov    r14,QWORD PTR [rsi+0x8]
    2943:	48 89 fb             	mov    rbx,rdi
    2946:	48 8b 77 08          	mov    rsi,QWORD PTR [rdi+0x8]
    294a:	4c 01 f6             	add    rsi,r14
    294d:	48 3b 77 10          	cmp    rsi,QWORD PTR [rdi+0x10]
    2951:	76 05                	jbe    2958 <_Z3addR13StringBuilderNSt7__cxx1112basic_stringIcSt11char_traitsIcESaIcEEE+0x28>
    2953:	e8 38 ed ff ff       	call   1690 <_Z7reserveIcEvR4ListIT_Em.part.0>
    2958:	4d 85 f6             	test   r14,r14
    295b:	74 53                	je     29b0 <_Z3addR13StringBuilderNSt7__cxx1112basic_stringIcSt11char_traitsIcESaIcEEE+0x80>
    295d:	48 8b 43 08          	mov    rax,QWORD PTR [rbx+0x8]
    2961:	31 ed                	xor    ebp,ebp
    2963:	eb 1f                	jmp    2984 <_Z3addR13StringBuilderNSt7__cxx1112basic_stringIcSt11char_traitsIcESaIcEEE+0x54>
    2965:	0f 1f 00             	nop    DWORD PTR [rax]
    2968:	48 8b 13             	mov    rdx,QWORD PTR [rbx]
    296b:	48 83 c5 01          	add    rbp,0x1
    296f:	44 88 24 02          	mov    BYTE PTR [rdx+rax*1],r12b
    2973:	48 8b 43 08          	mov    rax,QWORD PTR [rbx+0x8]
    2977:	48 83 c0 01          	add    rax,0x1
    297b:	48 89 43 08          	mov    QWORD PTR [rbx+0x8],rax
    297f:	49 39 ee             	cmp    r14,rbp
    2982:	74 2c                	je     29b0 <_Z3addR13StringBuilderNSt7__cxx1112basic_stringIcSt11char_traitsIcESaIcEEE+0x80>
    2984:	49 8b 55 00          	mov    rdx,QWORD PTR [r13+0x0]
    2988:	44 0f b6 24 2a       	movzx  r12d,BYTE PTR [rdx+rbp*1]
    298d:	48 39 43 10          	cmp    QWORD PTR [rbx+0x10],rax
    2991:	75 d5                	jne    2968 <_Z3addR13StringBuilderNSt7__cxx1112basic_stringIcSt11char_traitsIcESaIcEEE+0x38>
    2993:	48 8d 34 00          	lea    rsi,[rax+rax*1]
    2997:	48 39 c6             	cmp    rsi,rax
    299a:	76 cc                	jbe    2968 <_Z3addR13StringBuilderNSt7__cxx1112basic_stringIcSt11char_traitsIcESaIcEEE+0x38>
    299c:	48 89 df             	mov    rdi,rbx
    299f:	e8 ec ec ff ff       	call   1690 <_Z7reserveIcEvR4ListIT_Em.part.0>
    29a4:	48 8b 43 08          	mov    rax,QWORD PTR [rbx+0x8]
    29a8:	eb be                	jmp    2968 <_Z3addR13StringBuilderNSt7__cxx1112basic_stringIcSt11char_traitsIcESaIcEEE+0x38>
    29aa:	66 0f 1f 44 00 00    	nop    WORD PTR [rax+rax*1+0x0]
    29b0:	5b                   	pop    rbx
    29b1:	5d                   	pop    rbp
    29b2:	41 5c                	pop    r12
    29b4:	41 5d                	pop    r13
    29b6:	41 5e                	pop    r14
    29b8:	c3                   	ret
    29b9:	0f 1f 80 00 00 00 00 	nop    DWORD PTR [rax+0x0]

00000000000029c0 <_Z5clearR13StringBuilder>:
    29c0:	f3 0f 1e fa          	endbr64
    29c4:	48 c7 47 08 00 00 00 	mov    QWORD PTR [rdi+0x8],0x0
    29cb:	00 
    29cc:	c3                   	ret
    29cd:	0f 1f 00             	nop    DWORD PTR [rax]

00000000000029d0 <_Z5buildR13StringBuilder7Context>:
    29d0:	f3 0f 1e fa          	endbr64
    29d4:	41 54                	push   r12
    29d6:	49 89 fc             	mov    r12,rdi
    29d9:	53                   	push   rbx
    29da:	48 89 f3             	mov    rbx,rsi
    29dd:	48 83 ec 28          	sub    rsp,0x28
    29e1:	64 48 8b 04 25 28 00 	mov    rax,QWORD PTR fs:0x28
    29e8:	00 00 
    29ea:	48 89 44 24 18       	mov    QWORD PTR [rsp+0x18],rax
    29ef:	48 8b 46 08          	mov    rax,QWORD PTR [rsi+0x8]
    29f3:	48 3b 46 10          	cmp    rax,QWORD PTR [rsi+0x10]
    29f7:	0f 84 93 00 00 00    	je     2a90 <_Z5buildR13StringBuilder7Context+0xc0>
    29fd:	48 8b 13             	mov    rdx,QWORD PTR [rbx]
    2a00:	f3 0f 6f 44 24 48    	movdqu xmm0,XMMWORD PTR [rsp+0x48]
    2a06:	48 89 e7             	mov    rdi,rsp
    2a09:	48 8b 74 24 40       	mov    rsi,QWORD PTR [rsp+0x40]
    2a0e:	c6 04 02 00          	mov    BYTE PTR [rdx+rax*1],0x0
    2a12:	48 8b 43 08          	mov    rax,QWORD PTR [rbx+0x8]
    2a16:	49 89 74 24 10       	mov    QWORD PTR [r12+0x10],rsi
    2a1b:	48 8d 50 01          	lea    rdx,[rax+0x1]
    2a1f:	41 0f 11 44 24 18    	movups XMMWORD PTR [r12+0x18],xmm0
    2a25:	66 48 0f 7e c0       	movq   rax,xmm0
    2a2a:	48 89 53 08          	mov    QWORD PTR [rbx+0x8],rdx
    2a2e:	49 89 14 24          	mov    QWORD PTR [r12],rdx
    2a32:	ff d0                	call   rax
    2a34:	8b 05 22 27 00 00    	mov    eax,DWORD PTR [rip+0x2722]        # 515c <_ZN9CoreError7CorrectE>
    2a3a:	39 04 24             	cmp    DWORD PTR [rsp],eax
    2a3d:	74 11                	je     2a50 <_Z5buildR13StringBuilder7Context+0x80>
    2a3f:	48 8d 3d 00 06 00 00 	lea    rdi,[rip+0x600]        # 3046 <_IO_stdin_used+0x46>
    2a46:	e8 f5 eb ff ff       	call   1640 <_Z5panicPKc>
    2a4b:	0f 1f 44 00 00       	nop    DWORD PTR [rax+rax*1+0x0]
    2a50:	48 8b 7c 24 08       	mov    rdi,QWORD PTR [rsp+0x8]
    2a55:	48 8b 33             	mov    rsi,QWORD PTR [rbx]
    2a58:	48 8b 53 08          	mov    rdx,QWORD PTR [rbx+0x8]
    2a5c:	49 89 7c 24 08       	mov    QWORD PTR [r12+0x8],rdi
    2a61:	e8 2a e7 ff ff       	call   1190 <memcpy@plt>
    2a66:	48 8b 43 08          	mov    rax,QWORD PTR [rbx+0x8]
    2a6a:	49 89 04 24          	mov    QWORD PTR [r12],rax
    2a6e:	48 8b 44 24 18       	mov    rax,QWORD PTR [rsp+0x18]
    2a73:	64 48 2b 04 25 28 00 	sub    rax,QWORD PTR fs:0x28
    2a7a:	00 00 
    2a7c:	75 30                	jne    2aae <_Z5buildR13StringBuilder7Context+0xde>
    2a7e:	48 83 c4 28          	add    rsp,0x28
    2a82:	4c 89 e0             	mov    rax,r12
    2a85:	5b                   	pop    rbx
    2a86:	41 5c                	pop    r12
    2a88:	c3                   	ret
    2a89:	0f 1f 80 00 00 00 00 	nop    DWORD PTR [rax+0x0]
    2a90:	48 8d 34 00          	lea    rsi,[rax+rax*1]
    2a94:	48 39 f0             	cmp    rax,rsi
    2a97:	0f 83 60 ff ff ff    	jae    29fd <_Z5buildR13StringBuilder7Context+0x2d>
    2a9d:	48 89 df             	mov    rdi,rbx
    2aa0:	e8 eb eb ff ff       	call   1690 <_Z7reserveIcEvR4ListIT_Em.part.0>
    2aa5:	48 8b 43 08          	mov    rax,QWORD PTR [rbx+0x8]
    2aa9:	e9 4f ff ff ff       	jmp    29fd <_Z5buildR13StringBuilder7Context+0x2d>
    2aae:	e8 1d e7 ff ff       	call   11d0 <__stack_chk_fail@plt>
    2ab3:	66 66 2e 0f 1f 84 00 	data16 cs nop WORD PTR [rax+rax*1+0x0]
    2aba:	00 00 00 00 
    2abe:	66 90                	xchg   ax,ax

0000000000002ac0 <_Z7reverseR13StringBuilder>:
    2ac0:	f3 0f 1e fa          	endbr64
    2ac4:	48 8b 57 08          	mov    rdx,QWORD PTR [rdi+0x8]
    2ac8:	48 89 d0             	mov    rax,rdx
    2acb:	48 d1 e8             	shr    rax,1
    2ace:	74 41                	je     2b11 <_Z7reverseR13StringBuilder+0x51>
    2ad0:	31 c0                	xor    eax,eax
    2ad2:	66 0f 1f 44 00 00    	nop    WORD PTR [rax+rax*1+0x0]
    2ad8:	48 8b 37             	mov    rsi,QWORD PTR [rdi]
    2adb:	48 29 c2             	sub    rdx,rax
    2ade:	0f b6 54 16 ff       	movzx  edx,BYTE PTR [rsi+rdx*1-0x1]
    2ae3:	48 8d 0c 06          	lea    rcx,[rsi+rax*1]
    2ae7:	44 0f b6 01          	movzx  r8d,BYTE PTR [rcx]
    2aeb:	88 11                	mov    BYTE PTR [rcx],dl
    2aed:	48 89 c2             	mov    rdx,rax
    2af0:	48 8b 0f             	mov    rcx,QWORD PTR [rdi]
    2af3:	48 83 c0 01          	add    rax,0x1
    2af7:	48 f7 d2             	not    rdx
    2afa:	48 03 57 08          	add    rdx,QWORD PTR [rdi+0x8]
    2afe:	44 88 04 11          	mov    BYTE PTR [rcx+rdx*1],r8b
    2b02:	48 8b 57 08          	mov    rdx,QWORD PTR [rdi+0x8]
    2b06:	48 89 d1             	mov    rcx,rdx
    2b09:	48 d1 e9             	shr    rcx,1
    2b0c:	48 39 c8             	cmp    rax,rcx
    2b0f:	72 c7                	jb     2ad8 <_Z7reverseR13StringBuilder+0x18>
    2b11:	c3                   	ret
    2b12:	66 66 2e 0f 1f 84 00 	data16 cs nop WORD PTR [rax+rax*1+0x0]
    2b19:	00 00 00 00 
    2b1d:	0f 1f 00             	nop    DWORD PTR [rax]

0000000000002b20 <_Z3absl>:
    2b20:	f3 0f 1e fa          	endbr64
    2b24:	48 89 f8             	mov    rax,rdi
    2b27:	48 f7 d8             	neg    rax
    2b2a:	48 0f 48 c7          	cmovs  rax,rdi
    2b2e:	c3                   	ret
    2b2f:	90                   	nop

0000000000002b30 <_Z4asd1Ri>:
    2b30:	f3 0f 1e fa          	endbr64
    2b34:	c7 07 0c 00 00 00    	mov    DWORD PTR [rdi],0xc
    2b3a:	c3                   	ret
    2b3b:	0f 1f 44 00 00       	nop    DWORD PTR [rax+rax*1+0x0]

0000000000002b40 <_Z4asd2i>:
    2b40:	f3 0f 1e fa          	endbr64
    2b44:	c3                   	ret
    2b45:	66 2e 0f 1f 84 00 00 	cs nop WORD PTR [rax+rax*1+0x0]
    2b4c:	00 00 00 
    2b4f:	90                   	nop

0000000000002b50 <_ZNKSt5ctypeIcE8do_widenEc>:
    2b50:	f3 0f 1e fa          	endbr64
    2b54:	89 f0                	mov    eax,esi
    2b56:	c3                   	ret

Disassembly of section .fini:

0000000000002b58 <_fini>:
    2b58:	f3 0f 1e fa          	endbr64
    2b5c:	48 83 ec 08          	sub    rsp,0x8
    2b60:	48 83 c4 08          	add    rsp,0x8
    2b64:	c3                   	ret
